	.file	"main.cpp"
	.text
.Ltext0:
	.section	.text._ZNSt6chrono8durationIlSt5ratioILl1ELl1000000000EEEC1IlvEERKT_,"axG",@progbits,_ZNSt6chrono8durationIlSt5ratioILl1ELl1000000000EEEC1IlvEERKT_,comdat
	.align 2
	.weak	_ZNSt6chrono8durationIlSt5ratioILl1ELl1000000000EEEC1IlvEERKT_
	.type	_ZNSt6chrono8durationIlSt5ratioILl1ELl1000000000EEEC1IlvEERKT_, @function
_ZNSt6chrono8durationIlSt5ratioILl1ELl1000000000EEEC1IlvEERKT_:
.LFB265:
	.file 1 "/usr/include/c++/7/chrono"
	.loc 1 327 0
	.cfi_startproc
	pushq	%rbp
	.cfi_def_cfa_offset 16
	.cfi_offset 6, -16
	movq	%rsp, %rbp
	.cfi_def_cfa_register 6
	movq	%rdi, -8(%rbp)
	movq	%rsi, -16(%rbp)
.LBB2:
	.loc 1 328 0
	movq	-16(%rbp), %rax
	movq	(%rax), %rdx
	movq	-8(%rbp), %rax
	movq	%rdx, (%rax)
.LBE2:
	nop
	popq	%rbp
	.cfi_def_cfa 7, 8
	ret
	.cfi_endproc
.LFE265:
	.size	_ZNSt6chrono8durationIlSt5ratioILl1ELl1000000000EEEC1IlvEERKT_, .-_ZNSt6chrono8durationIlSt5ratioILl1ELl1000000000EEEC1IlvEERKT_
	.section	.text._ZNSt6chrono15duration_valuesIlE4zeroEv,"axG",@progbits,_ZNSt6chrono15duration_valuesIlE4zeroEv,comdat
	.weak	_ZNSt6chrono15duration_valuesIlE4zeroEv
	.type	_ZNSt6chrono15duration_valuesIlE4zeroEv, @function
_ZNSt6chrono15duration_valuesIlE4zeroEv:
.LFB267:
	.loc 1 279 0
	.cfi_startproc
	pushq	%rbp
	.cfi_def_cfa_offset 16
	.cfi_offset 6, -16
	movq	%rsp, %rbp
	.cfi_def_cfa_register 6
	.loc 1 280 0
	movl	$0, %eax
	popq	%rbp
	.cfi_def_cfa 7, 8
	ret
	.cfi_endproc
.LFE267:
	.size	_ZNSt6chrono15duration_valuesIlE4zeroEv, .-_ZNSt6chrono15duration_valuesIlE4zeroEv
	.section	.text._ZNKSt6chrono8durationIlSt5ratioILl1ELl1000000000EEE5countEv,"axG",@progbits,_ZNKSt6chrono8durationIlSt5ratioILl1ELl1000000000EEE5countEv,comdat
	.align 2
	.weak	_ZNKSt6chrono8durationIlSt5ratioILl1ELl1000000000EEE5countEv
	.type	_ZNKSt6chrono8durationIlSt5ratioILl1ELl1000000000EEE5countEv, @function
_ZNKSt6chrono8durationIlSt5ratioILl1ELl1000000000EEE5countEv:
.LFB269:
	.loc 1 342 0
	.cfi_startproc
	pushq	%rbp
	.cfi_def_cfa_offset 16
	.cfi_offset 6, -16
	movq	%rsp, %rbp
	.cfi_def_cfa_register 6
	movq	%rdi, -8(%rbp)
	.loc 1 343 0
	movq	-8(%rbp), %rax
	movq	(%rax), %rax
	popq	%rbp
	.cfi_def_cfa 7, 8
	ret
	.cfi_endproc
.LFE269:
	.size	_ZNKSt6chrono8durationIlSt5ratioILl1ELl1000000000EEE5countEv, .-_ZNKSt6chrono8durationIlSt5ratioILl1ELl1000000000EEE5countEv
	.section	.text._ZNSt6chrono8durationIlSt5ratioILl1ELl1EEEC1IlvEERKT_,"axG",@progbits,_ZNSt6chrono8durationIlSt5ratioILl1ELl1EEEC1IlvEERKT_,comdat
	.align 2
	.weak	_ZNSt6chrono8durationIlSt5ratioILl1ELl1EEEC1IlvEERKT_
	.type	_ZNSt6chrono8durationIlSt5ratioILl1ELl1EEEC1IlvEERKT_, @function
_ZNSt6chrono8durationIlSt5ratioILl1ELl1EEEC1IlvEERKT_:
.LFB276:
	.loc 1 327 0
	.cfi_startproc
	pushq	%rbp
	.cfi_def_cfa_offset 16
	.cfi_offset 6, -16
	movq	%rsp, %rbp
	.cfi_def_cfa_register 6
	movq	%rdi, -8(%rbp)
	movq	%rsi, -16(%rbp)
.LBB3:
	.loc 1 328 0
	movq	-16(%rbp), %rax
	movq	(%rax), %rdx
	movq	-8(%rbp), %rax
	movq	%rdx, (%rax)
.LBE3:
	nop
	popq	%rbp
	.cfi_def_cfa 7, 8
	ret
	.cfi_endproc
.LFE276:
	.size	_ZNSt6chrono8durationIlSt5ratioILl1ELl1EEEC1IlvEERKT_, .-_ZNSt6chrono8durationIlSt5ratioILl1ELl1EEEC1IlvEERKT_
	.section	.text._ZNKSt6chrono8durationIlSt5ratioILl1ELl1EEE5countEv,"axG",@progbits,_ZNKSt6chrono8durationIlSt5ratioILl1ELl1EEE5countEv,comdat
	.align 2
	.weak	_ZNKSt6chrono8durationIlSt5ratioILl1ELl1EEE5countEv
	.type	_ZNKSt6chrono8durationIlSt5ratioILl1ELl1EEE5countEv, @function
_ZNKSt6chrono8durationIlSt5ratioILl1ELl1EEE5countEv:
.LFB285:
	.loc 1 342 0
	.cfi_startproc
	pushq	%rbp
	.cfi_def_cfa_offset 16
	.cfi_offset 6, -16
	movq	%rsp, %rbp
	.cfi_def_cfa_register 6
	movq	%rdi, -8(%rbp)
	.loc 1 343 0
	movq	-8(%rbp), %rax
	movq	(%rax), %rax
	popq	%rbp
	.cfi_def_cfa 7, 8
	ret
	.cfi_endproc
.LFE285:
	.size	_ZNKSt6chrono8durationIlSt5ratioILl1ELl1EEE5countEv, .-_ZNKSt6chrono8durationIlSt5ratioILl1ELl1EEE5countEv
	.section	.rodata
	.type	_ZStL19piecewise_construct, @object
	.size	_ZStL19piecewise_construct, 1
_ZStL19piecewise_construct:
	.zero	1
	.section	.text._ZStanSt13_Ios_FmtflagsS_,"axG",@progbits,_ZStanSt13_Ios_FmtflagsS_,comdat
	.weak	_ZStanSt13_Ios_FmtflagsS_
	.type	_ZStanSt13_Ios_FmtflagsS_, @function
_ZStanSt13_Ios_FmtflagsS_:
.LFB1394:
	.file 2 "/usr/include/c++/7/bits/ios_base.h"
	.loc 2 84 0
	.cfi_startproc
	pushq	%rbp
	.cfi_def_cfa_offset 16
	.cfi_offset 6, -16
	movq	%rsp, %rbp
	.cfi_def_cfa_register 6
	movl	%edi, -4(%rbp)
	movl	%esi, -8(%rbp)
	.loc 2 84 0
	movl	-4(%rbp), %eax
	andl	-8(%rbp), %eax
	popq	%rbp
	.cfi_def_cfa 7, 8
	ret
	.cfi_endproc
.LFE1394:
	.size	_ZStanSt13_Ios_FmtflagsS_, .-_ZStanSt13_Ios_FmtflagsS_
	.section	.text._ZStorSt13_Ios_FmtflagsS_,"axG",@progbits,_ZStorSt13_Ios_FmtflagsS_,comdat
	.weak	_ZStorSt13_Ios_FmtflagsS_
	.type	_ZStorSt13_Ios_FmtflagsS_, @function
_ZStorSt13_Ios_FmtflagsS_:
.LFB1395:
	.loc 2 88 0
	.cfi_startproc
	pushq	%rbp
	.cfi_def_cfa_offset 16
	.cfi_offset 6, -16
	movq	%rsp, %rbp
	.cfi_def_cfa_register 6
	movl	%edi, -4(%rbp)
	movl	%esi, -8(%rbp)
	.loc 2 88 0
	movl	-4(%rbp), %eax
	orl	-8(%rbp), %eax
	popq	%rbp
	.cfi_def_cfa 7, 8
	ret
	.cfi_endproc
.LFE1395:
	.size	_ZStorSt13_Ios_FmtflagsS_, .-_ZStorSt13_Ios_FmtflagsS_
	.section	.text._ZStcoSt13_Ios_Fmtflags,"axG",@progbits,_ZStcoSt13_Ios_Fmtflags,comdat
	.weak	_ZStcoSt13_Ios_Fmtflags
	.type	_ZStcoSt13_Ios_Fmtflags, @function
_ZStcoSt13_Ios_Fmtflags:
.LFB1397:
	.loc 2 96 0
	.cfi_startproc
	pushq	%rbp
	.cfi_def_cfa_offset 16
	.cfi_offset 6, -16
	movq	%rsp, %rbp
	.cfi_def_cfa_register 6
	movl	%edi, -4(%rbp)
	.loc 2 96 0
	movl	-4(%rbp), %eax
	notl	%eax
	popq	%rbp
	.cfi_def_cfa 7, 8
	ret
	.cfi_endproc
.LFE1397:
	.size	_ZStcoSt13_Ios_Fmtflags, .-_ZStcoSt13_Ios_Fmtflags
	.section	.text._ZStoRRSt13_Ios_FmtflagsS_,"axG",@progbits,_ZStoRRSt13_Ios_FmtflagsS_,comdat
	.weak	_ZStoRRSt13_Ios_FmtflagsS_
	.type	_ZStoRRSt13_Ios_FmtflagsS_, @function
_ZStoRRSt13_Ios_FmtflagsS_:
.LFB1398:
	.loc 2 100 0
	.cfi_startproc
	pushq	%rbp
	.cfi_def_cfa_offset 16
	.cfi_offset 6, -16
	movq	%rsp, %rbp
	.cfi_def_cfa_register 6
	subq	$16, %rsp
	movq	%rdi, -8(%rbp)
	movl	%esi, -12(%rbp)
	.loc 2 100 0
	movq	-8(%rbp), %rax
	movl	(%rax), %eax
	movl	-12(%rbp), %edx
	movl	%edx, %esi
	movl	%eax, %edi
	call	_ZStorSt13_Ios_FmtflagsS_
	movl	%eax, %edx
	movq	-8(%rbp), %rax
	movl	%edx, (%rax)
	movq	-8(%rbp), %rax
	leave
	.cfi_def_cfa 7, 8
	ret
	.cfi_endproc
.LFE1398:
	.size	_ZStoRRSt13_Ios_FmtflagsS_, .-_ZStoRRSt13_Ios_FmtflagsS_
	.section	.text._ZStaNRSt13_Ios_FmtflagsS_,"axG",@progbits,_ZStaNRSt13_Ios_FmtflagsS_,comdat
	.weak	_ZStaNRSt13_Ios_FmtflagsS_
	.type	_ZStaNRSt13_Ios_FmtflagsS_, @function
_ZStaNRSt13_Ios_FmtflagsS_:
.LFB1399:
	.loc 2 104 0
	.cfi_startproc
	pushq	%rbp
	.cfi_def_cfa_offset 16
	.cfi_offset 6, -16
	movq	%rsp, %rbp
	.cfi_def_cfa_register 6
	subq	$16, %rsp
	movq	%rdi, -8(%rbp)
	movl	%esi, -12(%rbp)
	.loc 2 104 0
	movq	-8(%rbp), %rax
	movl	(%rax), %eax
	movl	-12(%rbp), %edx
	movl	%edx, %esi
	movl	%eax, %edi
	call	_ZStanSt13_Ios_FmtflagsS_
	movl	%eax, %edx
	movq	-8(%rbp), %rax
	movl	%edx, (%rax)
	movq	-8(%rbp), %rax
	leave
	.cfi_def_cfa 7, 8
	ret
	.cfi_endproc
.LFE1399:
	.size	_ZStaNRSt13_Ios_FmtflagsS_, .-_ZStaNRSt13_Ios_FmtflagsS_
	.section	.text._ZNSt8ios_base4setfESt13_Ios_Fmtflags,"axG",@progbits,_ZNSt8ios_base4setfESt13_Ios_Fmtflags,comdat
	.align 2
	.weak	_ZNSt8ios_base4setfESt13_Ios_Fmtflags
	.type	_ZNSt8ios_base4setfESt13_Ios_Fmtflags, @function
_ZNSt8ios_base4setfESt13_Ios_Fmtflags:
.LFB1427:
	.loc 2 646 0
	.cfi_startproc
	pushq	%rbp
	.cfi_def_cfa_offset 16
	.cfi_offset 6, -16
	movq	%rsp, %rbp
	.cfi_def_cfa_register 6
	subq	$32, %rsp
	movq	%rdi, -24(%rbp)
	movl	%esi, -28(%rbp)
	.loc 2 648 0
	movq	-24(%rbp), %rax
	movl	24(%rax), %eax
	movl	%eax, -4(%rbp)
	.loc 2 649 0
	movq	-24(%rbp), %rax
	leaq	24(%rax), %rdx
	movl	-28(%rbp), %eax
	movl	%eax, %esi
	movq	%rdx, %rdi
	call	_ZStoRRSt13_Ios_FmtflagsS_
	.loc 2 650 0
	movl	-4(%rbp), %eax
	.loc 2 651 0
	leave
	.cfi_def_cfa 7, 8
	ret
	.cfi_endproc
.LFE1427:
	.size	_ZNSt8ios_base4setfESt13_Ios_Fmtflags, .-_ZNSt8ios_base4setfESt13_Ios_Fmtflags
	.section	.text._ZNSt8ios_base4setfESt13_Ios_FmtflagsS0_,"axG",@progbits,_ZNSt8ios_base4setfESt13_Ios_FmtflagsS0_,comdat
	.align 2
	.weak	_ZNSt8ios_base4setfESt13_Ios_FmtflagsS0_
	.type	_ZNSt8ios_base4setfESt13_Ios_FmtflagsS0_, @function
_ZNSt8ios_base4setfESt13_Ios_FmtflagsS0_:
.LFB1428:
	.loc 2 663 0
	.cfi_startproc
	pushq	%rbp
	.cfi_def_cfa_offset 16
	.cfi_offset 6, -16
	movq	%rsp, %rbp
	.cfi_def_cfa_register 6
	subq	$32, %rsp
	movq	%rdi, -24(%rbp)
	movl	%esi, -28(%rbp)
	movl	%edx, -32(%rbp)
	.loc 2 665 0
	movq	-24(%rbp), %rax
	movl	24(%rax), %eax
	movl	%eax, -4(%rbp)
	.loc 2 666 0
	movl	-32(%rbp), %eax
	movl	%eax, %edi
	call	_ZStcoSt13_Ios_Fmtflags
	movl	%eax, %edx
	movq	-24(%rbp), %rax
	addq	$24, %rax
	movl	%edx, %esi
	movq	%rax, %rdi
	call	_ZStaNRSt13_Ios_FmtflagsS_
	.loc 2 667 0
	movl	-32(%rbp), %edx
	movl	-28(%rbp), %eax
	movl	%edx, %esi
	movl	%eax, %edi
	call	_ZStanSt13_Ios_FmtflagsS_
	movl	%eax, %edx
	movq	-24(%rbp), %rax
	addq	$24, %rax
	movl	%edx, %esi
	movq	%rax, %rdi
	call	_ZStoRRSt13_Ios_FmtflagsS_
	.loc 2 668 0
	movl	-4(%rbp), %eax
	.loc 2 669 0
	leave
	.cfi_def_cfa 7, 8
	ret
	.cfi_endproc
.LFE1428:
	.size	_ZNSt8ios_base4setfESt13_Ios_FmtflagsS0_, .-_ZNSt8ios_base4setfESt13_Ios_FmtflagsS0_
	.section	.text._ZSt9uppercaseRSt8ios_base,"axG",@progbits,_ZSt9uppercaseRSt8ios_base,comdat
	.weak	_ZSt9uppercaseRSt8ios_base
	.type	_ZSt9uppercaseRSt8ios_base, @function
_ZSt9uppercaseRSt8ios_base:
.LFB1448:
	.loc 2 959 0
	.cfi_startproc
	pushq	%rbp
	.cfi_def_cfa_offset 16
	.cfi_offset 6, -16
	movq	%rsp, %rbp
	.cfi_def_cfa_register 6
	subq	$16, %rsp
	movq	%rdi, -8(%rbp)
	.loc 2 960 0
	movq	-8(%rbp), %rax
	movl	$16384, %esi
	movq	%rax, %rdi
	call	_ZNSt8ios_base4setfESt13_Ios_Fmtflags
	.loc 2 961 0
	movq	-8(%rbp), %rax
	.loc 2 962 0
	leave
	.cfi_def_cfa 7, 8
	ret
	.cfi_endproc
.LFE1448:
	.size	_ZSt9uppercaseRSt8ios_base, .-_ZSt9uppercaseRSt8ios_base
	.section	.text._ZSt3hexRSt8ios_base,"axG",@progbits,_ZSt3hexRSt8ios_base,comdat
	.weak	_ZSt3hexRSt8ios_base
	.type	_ZSt3hexRSt8ios_base, @function
_ZSt3hexRSt8ios_base:
.LFB1456:
	.loc 2 1025 0
	.cfi_startproc
	pushq	%rbp
	.cfi_def_cfa_offset 16
	.cfi_offset 6, -16
	movq	%rsp, %rbp
	.cfi_def_cfa_register 6
	subq	$16, %rsp
	movq	%rdi, -8(%rbp)
	.loc 2 1026 0
	movq	-8(%rbp), %rax
	movl	$74, %edx
	movl	$8, %esi
	movq	%rax, %rdi
	call	_ZNSt8ios_base4setfESt13_Ios_FmtflagsS0_
	.loc 2 1027 0
	movq	-8(%rbp), %rax
	.loc 2 1028 0
	leave
	.cfi_def_cfa 7, 8
	ret
	.cfi_endproc
.LFE1456:
	.size	_ZSt3hexRSt8ios_base, .-_ZSt3hexRSt8ios_base
	.section	.rodata
	.type	_ZStL13allocator_arg, @object
	.size	_ZStL13allocator_arg, 1
_ZStL13allocator_arg:
	.zero	1
	.type	_ZStL6ignore, @object
	.size	_ZStL6ignore, 1
_ZStL6ignore:
	.zero	1
	.section	.text._ZSt4setwi,"axG",@progbits,_ZSt4setwi,comdat
	.weak	_ZSt4setwi
	.type	_ZSt4setwi, @function
_ZSt4setwi:
.LFB2364:
	.file 3 "/usr/include/c++/7/iomanip"
	.loc 3 226 0
	.cfi_startproc
	pushq	%rbp
	.cfi_def_cfa_offset 16
	.cfi_offset 6, -16
	movq	%rsp, %rbp
	.cfi_def_cfa_register 6
	movl	%edi, -4(%rbp)
	.loc 3 226 0
	movl	-4(%rbp), %eax
	popq	%rbp
	.cfi_def_cfa 7, 8
	ret
	.cfi_endproc
.LFE2364:
	.size	_ZSt4setwi, .-_ZSt4setwi
	.local	_ZStL8__ioinit
	.comm	_ZStL8__ioinit,1,1
	.section	.rodata
	.align 4
	.type	_ZN9__gnu_cxxL21__default_lock_policyE, @object
	.size	_ZN9__gnu_cxxL21__default_lock_policyE, 4
_ZN9__gnu_cxxL21__default_lock_policyE:
	.long	2
	.globl	signalValue
	.bss
	.align 4
	.type	signalValue, @object
	.size	signalValue, 4
signalValue:
	.zero	4
	.text
	.globl	onSignal
	.type	onSignal, @function
onSignal:
.LFB2977:
	.file 4 "src/main.cpp"
	.loc 4 82 0
	.cfi_startproc
	pushq	%rbp
	.cfi_def_cfa_offset 16
	.cfi_offset 6, -16
	movq	%rsp, %rbp
	.cfi_def_cfa_register 6
	movl	%edi, -4(%rbp)
	.loc 4 83 0
	movl	-4(%rbp), %eax
	movl	%eax, signalValue(%rip)
	.loc 4 84 0
	nop
	popq	%rbp
	.cfi_def_cfa 7, 8
	ret
	.cfi_endproc
.LFE2977:
	.size	onSignal, .-onSignal
	.section	.rodata
	.align 8
.LC0:
	.string	"Usage: socketcan-raw-demo [-h] [-V] [-f] interface"
.LC1:
	.string	"Options:"
	.align 8
.LC2:
	.string	"  -h  Display this information"
	.align 8
.LC3:
	.string	"  -V  Display version information"
.LC4:
	.string	"  -f  Run in the foreground"
	.text
	.globl	usage
	.type	usage, @function
usage:
.LFB2978:
	.loc 4 86 0
	.cfi_startproc
	pushq	%rbp
	.cfi_def_cfa_offset 16
	.cfi_offset 6, -16
	movq	%rsp, %rbp
	.cfi_def_cfa_register 6
	.loc 4 87 0
	leaq	.LC0(%rip), %rsi
	leaq	_ZSt4cout(%rip), %rdi
	call	_ZStlsISt11char_traitsIcEERSt13basic_ostreamIcT_ES5_PKc@PLT
	movq	%rax, %rdx
	movq	_ZSt4endlIcSt11char_traitsIcEERSt13basic_ostreamIT_T0_ES6_@GOTPCREL(%rip), %rax
	movq	%rax, %rsi
	movq	%rdx, %rdi
	call	_ZNSolsEPFRSoS_E@PLT
	.loc 4 88 0
	leaq	.LC1(%rip), %rsi
	movq	%rax, %rdi
	call	_ZStlsISt11char_traitsIcEERSt13basic_ostreamIcT_ES5_PKc@PLT
	movq	%rax, %rdx
	movq	_ZSt4endlIcSt11char_traitsIcEERSt13basic_ostreamIT_T0_ES6_@GOTPCREL(%rip), %rax
	movq	%rax, %rsi
	movq	%rdx, %rdi
	call	_ZNSolsEPFRSoS_E@PLT
	.loc 4 89 0
	leaq	.LC2(%rip), %rsi
	movq	%rax, %rdi
	call	_ZStlsISt11char_traitsIcEERSt13basic_ostreamIcT_ES5_PKc@PLT
	movq	%rax, %rdx
	movq	_ZSt4endlIcSt11char_traitsIcEERSt13basic_ostreamIT_T0_ES6_@GOTPCREL(%rip), %rax
	movq	%rax, %rsi
	movq	%rdx, %rdi
	call	_ZNSolsEPFRSoS_E@PLT
	.loc 4 90 0
	leaq	.LC3(%rip), %rsi
	movq	%rax, %rdi
	call	_ZStlsISt11char_traitsIcEERSt13basic_ostreamIcT_ES5_PKc@PLT
	movq	%rax, %rdx
	movq	_ZSt4endlIcSt11char_traitsIcEERSt13basic_ostreamIT_T0_ES6_@GOTPCREL(%rip), %rax
	movq	%rax, %rsi
	movq	%rdx, %rdi
	call	_ZNSolsEPFRSoS_E@PLT
	.loc 4 91 0
	leaq	.LC4(%rip), %rsi
	movq	%rax, %rdi
	call	_ZStlsISt11char_traitsIcEERSt13basic_ostreamIcT_ES5_PKc@PLT
	movq	%rax, %rdx
	movq	_ZSt4endlIcSt11char_traitsIcEERSt13basic_ostreamIT_T0_ES6_@GOTPCREL(%rip), %rax
	movq	%rax, %rsi
	movq	%rdx, %rdi
	call	_ZNSolsEPFRSoS_E@PLT
	movq	%rax, %rdx
	.loc 4 92 0
	movq	_ZSt4endlIcSt11char_traitsIcEERSt13basic_ostreamIT_T0_ES6_@GOTPCREL(%rip), %rax
	movq	%rax, %rsi
	movq	%rdx, %rdi
	call	_ZNSolsEPFRSoS_E@PLT
	.loc 4 93 0
	nop
	popq	%rbp
	.cfi_def_cfa 7, 8
	ret
	.cfi_endproc
.LFE2978:
	.size	usage, .-usage
	.section	.rodata
	.align 8
.LC5:
	.string	"socketcan-raw-demo version 2.0.0"
	.align 8
.LC6:
	.string	"Compiled on Mar 11 2020, 09:55:36"
	.text
	.globl	version
	.type	version, @function
version:
.LFB2979:
	.loc 4 95 0
	.cfi_startproc
	pushq	%rbp
	.cfi_def_cfa_offset 16
	.cfi_offset 6, -16
	movq	%rsp, %rbp
	.cfi_def_cfa_register 6
	.loc 4 96 0
	leaq	.LC5(%rip), %rsi
	leaq	_ZSt4cout(%rip), %rdi
	call	_ZStlsISt11char_traitsIcEERSt13basic_ostreamIcT_ES5_PKc@PLT
	movq	%rax, %rdx
	movq	_ZSt4endlIcSt11char_traitsIcEERSt13basic_ostreamIT_T0_ES6_@GOTPCREL(%rip), %rax
	movq	%rax, %rsi
	movq	%rdx, %rdi
	call	_ZNSolsEPFRSoS_E@PLT
	.loc 4 97 0
	leaq	.LC6(%rip), %rsi
	movq	%rax, %rdi
	call	_ZStlsISt11char_traitsIcEERSt13basic_ostreamIcT_ES5_PKc@PLT
	movq	%rax, %rdx
	movq	_ZSt4endlIcSt11char_traitsIcEERSt13basic_ostreamIT_T0_ES6_@GOTPCREL(%rip), %rax
	movq	%rax, %rsi
	movq	%rdx, %rdi
	call	_ZNSolsEPFRSoS_E@PLT
	movq	%rax, %rdx
	.loc 4 98 0
	movq	_ZSt4endlIcSt11char_traitsIcEERSt13basic_ostreamIT_T0_ES6_@GOTPCREL(%rip), %rax
	movq	%rax, %rsi
	movq	%rdx, %rdi
	call	_ZNSolsEPFRSoS_E@PLT
	.loc 4 99 0
	nop
	popq	%rbp
	.cfi_def_cfa 7, 8
	ret
	.cfi_endproc
.LFE2979:
	.size	version, .-version
	.section	.rodata
.LC7:
	.string	"RPM: "
.LC8:
	.string	"Got 0x110"
.LC9:
	.string	"Got 0x320"
.LC10:
	.string	"frame"
.LC11:
	.string	"Unexpected CAN ID: 0x"
	.text
	.globl	processFrame
	.type	processFrame, @function
processFrame:
.LFB2980:
	.loc 4 101 0
	.cfi_startproc
	.cfi_personality 0x9b,DW.ref.__gxx_personality_v0
	.cfi_lsda 0x1b,.LLSDA2980
	pushq	%rbp
	.cfi_def_cfa_offset 16
	.cfi_offset 6, -16
	movq	%rsp, %rbp
	.cfi_def_cfa_register 6
	pushq	%rbx
	subq	$312, %rsp
	.cfi_offset 3, -24
	movq	%rdi, -312(%rbp)
	.loc 4 101 0
	movq	%fs:40, %rax
	movq	%rax, -24(%rbp)
	xorl	%eax, %eax
.LBB4:
	.loc 4 102 0
	movq	-312(%rbp), %rax
	movl	(%rax), %eax
	cmpl	$272, %eax
	je	.L34
	cmpl	$800, %eax
	je	.L35
	cmpl	$160, %eax
	jne	.L41
.LBB5:
.LBB6:
.LBB7:
	.loc 4 105 0
	movq	-312(%rbp), %rax
	addq	$8, %rax
	movzwl	(%rax), %eax
	.loc 4 105 0
	movw	%ax, -296(%rbp)
	.loc 4 105 0
	movzwl	-296(%rbp), %eax
#APP
# 105 "src/main.cpp" 1
	rorw $8, %ax
# 0 "" 2
#NO_APP
	movw	%ax, -290(%rbp)
	.loc 4 105 0
	movzwl	-290(%rbp), %eax
	movw	%ax, -298(%rbp)
.LBE7:
	.loc 4 106 0
	leaq	.LC7(%rip), %rsi
	leaq	_ZSt4cout(%rip), %rdi
.LEHB0:
	call	_ZStlsISt11char_traitsIcEERSt13basic_ostreamIcT_ES5_PKc@PLT
	movq	%rax, %rdx
	movzwl	-298(%rbp), %eax
	movzwl	%ax, %eax
	movl	%eax, %esi
	movq	%rdx, %rdi
	call	_ZNSolsEt@PLT
	movq	%rax, %rdx
	movq	_ZSt4endlIcSt11char_traitsIcEERSt13basic_ostreamIT_T0_ES6_@GOTPCREL(%rip), %rax
	movq	%rax, %rsi
	movq	%rdx, %rdi
	call	_ZNSolsEPFRSoS_E@PLT
.LBE6:
	.loc 4 107 0
	jmp	.L37
.L34:
	.loc 4 111 0
	leaq	.LC8(%rip), %rsi
	leaq	_ZSt4cout(%rip), %rdi
	call	_ZStlsISt11char_traitsIcEERSt13basic_ostreamIcT_ES5_PKc@PLT
	movq	%rax, %rdx
	movq	_ZSt4endlIcSt11char_traitsIcEERSt13basic_ostreamIT_T0_ES6_@GOTPCREL(%rip), %rax
	movq	%rax, %rsi
	movq	%rdx, %rdi
	call	_ZNSolsEPFRSoS_E@PLT
	.loc 4 112 0
	jmp	.L37
.L35:
.LBB8:
	.loc 4 116 0
	leaq	.LC9(%rip), %rsi
	leaq	_ZSt4cout(%rip), %rdi
	call	_ZStlsISt11char_traitsIcEERSt13basic_ostreamIcT_ES5_PKc@PLT
	movq	%rax, %rdx
	movq	_ZSt4endlIcSt11char_traitsIcEERSt13basic_ostreamIT_T0_ES6_@GOTPCREL(%rip), %rax
	movq	%rax, %rsi
	movq	%rdx, %rdi
	call	_ZNSolsEPFRSoS_E@PLT
.LBB9:
	.loc 4 117 0
	movq	-312(%rbp), %rax
	addq	$8, %rax
	movzwl	(%rax), %eax
	.loc 4 117 0
	movw	%ax, -296(%rbp)
	.loc 4 117 0
	movzwl	-296(%rbp), %eax
#APP
# 117 "src/main.cpp" 1
	rorw $8, %ax
# 0 "" 2
#NO_APP
	movw	%ax, -294(%rbp)
	movzwl	-294(%rbp), %eax
	movw	%ax, -292(%rbp)
.LBE9:
	.loc 4 118 0
	leaq	.LC10(%rip), %rsi
	leaq	_ZSt4cout(%rip), %rdi
	call	_ZStlsISt11char_traitsIcEERSt13basic_ostreamIcT_ES5_PKc@PLT
	movq	%rax, %rdx
	movzwl	-292(%rbp), %eax
	movl	%eax, %esi
	movq	%rdx, %rdi
	call	_ZNSolsEt@PLT
	movq	%rax, %rdx
	movq	_ZSt4endlIcSt11char_traitsIcEERSt13basic_ostreamIT_T0_ES6_@GOTPCREL(%rip), %rax
	movq	%rax, %rsi
	movq	%rdx, %rdi
	call	_ZNSolsEPFRSoS_E@PLT
.LBE8:
	.loc 4 119 0
	jmp	.L37
.L41:
	.loc 4 122 0
	leaq	.LC11(%rip), %rsi
	leaq	_ZSt4cerr(%rip), %rdi
	call	_ZStlsISt11char_traitsIcEERSt13basic_ostreamIcT_ES5_PKc@PLT
	leaq	_ZSt3hexRSt8ios_base(%rip), %rsi
	movq	%rax, %rdi
	call	_ZNSolsEPFRSt8ios_baseS0_E@PLT
	leaq	_ZSt9uppercaseRSt8ios_base(%rip), %rsi
	movq	%rax, %rdi
	call	_ZNSolsEPFRSt8ios_baseS0_E@PLT
	movq	%rax, %rbx
	.loc 4 123 0
	movl	$3, %edi
	call	_ZSt4setwi
	movl	%eax, %esi
	movq	%rbx, %rdi
	call	_ZStlsIcSt11char_traitsIcEERSt13basic_ostreamIT_T0_ES6_St5_Setw@PLT
	movq	%rax, %rbx
	movl	$48, %edi
	call	_ZSt7setfillIcESt8_SetfillIT_ES1_
	movl	%eax, %esi
	movq	%rbx, %rdi
	call	_ZStlsIcSt11char_traitsIcEERSt13basic_ostreamIT_T0_ES6_St8_SetfillIS3_E@PLT
	movq	%rax, %rdx
	movq	-312(%rbp), %rax
	movl	(%rax), %eax
	movl	%eax, %esi
	movq	%rdx, %rdi
	call	_ZNSolsEj@PLT
	movq	%rax, %rdx
	.loc 4 124 0
	movq	_ZSt4endlIcSt11char_traitsIcEERSt13basic_ostreamIT_T0_ES6_@GOTPCREL(%rip), %rax
	movq	%rax, %rsi
	movq	%rdx, %rdi
	call	_ZNSolsEPFRSoS_E@PLT
	.loc 4 125 0
	leaq	-288(%rbp), %rax
	movl	$0, %esi
	movq	%rax, %rdi
	call	_ZNSt9basic_iosIcSt11char_traitsIcEEC1EPSt15basic_streambufIcS1_E@PLT
.LEHE0:
	leaq	-288(%rbp), %rax
	movq	%rax, %rsi
	leaq	8+_ZSt4cerr(%rip), %rdi
.LEHB1:
	call	_ZNSt9basic_iosIcSt11char_traitsIcEE7copyfmtERKS2_@PLT
.LEHE1:
	.loc 4 125 0 is_stmt 0 discriminator 2
	leaq	-288(%rbp), %rax
	movq	%rax, %rdi
	call	_ZNSt9basic_iosIcSt11char_traitsIcEED1Ev@PLT
	.loc 4 126 0 is_stmt 1 discriminator 2
	nop
.L37:
.LBE5:
.LBE4:
	.loc 4 128 0
	nop
	movq	-24(%rbp), %rax
	xorq	%fs:40, %rax
	je	.L39
	jmp	.L42
.L40:
	movq	%rax, %rbx
.LBB11:
.LBB10:
	.loc 4 125 0
	leaq	-288(%rbp), %rax
	movq	%rax, %rdi
	call	_ZNSt9basic_iosIcSt11char_traitsIcEED1Ev@PLT
	movq	%rbx, %rax
	movq	%rax, %rdi
.LEHB2:
	call	_Unwind_Resume@PLT
.LEHE2:
.L42:
.LBE10:
.LBE11:
	.loc 4 128 0
	call	__stack_chk_fail@PLT
.L39:
	addq	$312, %rsp
	popq	%rbx
	popq	%rbp
	.cfi_def_cfa 7, 8
	ret
	.cfi_endproc
.LFE2980:
	.globl	__gxx_personality_v0
	.section	.gcc_except_table,"a",@progbits
.LLSDA2980:
	.byte	0xff
	.byte	0xff
	.byte	0x1
	.uleb128 .LLSDACSE2980-.LLSDACSB2980
.LLSDACSB2980:
	.uleb128 .LEHB0-.LFB2980
	.uleb128 .LEHE0-.LEHB0
	.uleb128 0
	.uleb128 0
	.uleb128 .LEHB1-.LFB2980
	.uleb128 .LEHE1-.LEHB1
	.uleb128 .L40-.LFB2980
	.uleb128 0
	.uleb128 .LEHB2-.LFB2980
	.uleb128 .LEHE2-.LEHB2
	.uleb128 0
	.uleb128 0
.LLSDACSE2980:
	.text
	.size	processFrame, .-processFrame
	.section	.text._ZNSt6chrono8durationIlSt5ratioILl1ELl1000EEEC1IlvEERKT_,"axG",@progbits,_ZNSt6chrono8durationIlSt5ratioILl1ELl1000EEEC1IlvEERKT_,comdat
	.align 2
	.weak	_ZNSt6chrono8durationIlSt5ratioILl1ELl1000EEEC1IlvEERKT_
	.type	_ZNSt6chrono8durationIlSt5ratioILl1ELl1000EEEC1IlvEERKT_, @function
_ZNSt6chrono8durationIlSt5ratioILl1ELl1000EEEC1IlvEERKT_:
.LFB2987:
	.loc 1 327 0
	.cfi_startproc
	pushq	%rbp
	.cfi_def_cfa_offset 16
	.cfi_offset 6, -16
	movq	%rsp, %rbp
	.cfi_def_cfa_register 6
	movq	%rdi, -8(%rbp)
	movq	%rsi, -16(%rbp)
.LBB12:
	.loc 1 328 0
	movq	-16(%rbp), %rax
	movq	(%rax), %rdx
	movq	-8(%rbp), %rax
	movq	%rdx, (%rax)
.LBE12:
	nop
	popq	%rbp
	.cfi_def_cfa 7, 8
	ret
	.cfi_endproc
.LFE2987:
	.size	_ZNSt6chrono8durationIlSt5ratioILl1ELl1000EEEC1IlvEERKT_, .-_ZNSt6chrono8durationIlSt5ratioILl1ELl1000EEEC1IlvEERKT_
	.section	.text._ZNSt8literals15chrono_literals16__check_overflowINSt6chrono8durationIlSt5ratioILl1ELl1000EEEEJLc49ELc48ELc48EEEET_v,"axG",@progbits,_ZNSt8literals15chrono_literals16__check_overflowINSt6chrono8durationIlSt5ratioILl1ELl1000EEEEJLc49ELc48ELc48EEEET_v,comdat
	.weak	_ZNSt8literals15chrono_literals16__check_overflowINSt6chrono8durationIlSt5ratioILl1ELl1000EEEEJLc49ELc48ELc48EEEET_v
	.type	_ZNSt8literals15chrono_literals16__check_overflowINSt6chrono8durationIlSt5ratioILl1ELl1000EEEEJLc49ELc48ELc48EEEET_v, @function
_ZNSt8literals15chrono_literals16__check_overflowINSt6chrono8durationIlSt5ratioILl1ELl1000EEEEJLc49ELc48ELc48EEEET_v:
.LFB2983:
	.loc 1 905 0
	.cfi_startproc
	pushq	%rbp
	.cfi_def_cfa_offset 16
	.cfi_offset 6, -16
	movq	%rsp, %rbp
	.cfi_def_cfa_register 6
	subq	$16, %rsp
	.loc 1 905 0
	movq	%fs:40, %rax
	movq	%rax, -8(%rbp)
	xorl	%eax, %eax
	.loc 1 912 0
	leaq	-16(%rbp), %rax
	leaq	_ZNSt17integral_constantIlLl100EE5valueE(%rip), %rsi
	movq	%rax, %rdi
	call	_ZNSt6chrono8durationIlSt5ratioILl1ELl1000EEEC1IlvEERKT_
	movq	-16(%rbp), %rax
	.loc 1 913 0
	movq	-8(%rbp), %rdx
	xorq	%fs:40, %rdx
	je	.L46
	call	__stack_chk_fail@PLT
.L46:
	leave
	.cfi_def_cfa 7, 8
	ret
	.cfi_endproc
.LFE2983:
	.size	_ZNSt8literals15chrono_literals16__check_overflowINSt6chrono8durationIlSt5ratioILl1ELl1000EEEEJLc49ELc48ELc48EEEET_v, .-_ZNSt8literals15chrono_literals16__check_overflowINSt6chrono8durationIlSt5ratioILl1ELl1000EEEEJLc49ELc48ELc48EEEET_v
	.section	.text._ZNSt8literals15chrono_literalsli2msIJLc49ELc48ELc48EEEENSt6chrono8durationIlSt5ratioILl1ELl1000EEEEv,"axG",@progbits,_ZNSt8literals15chrono_literalsli2msIJLc49ELc48ELc48EEEENSt6chrono8durationIlSt5ratioILl1ELl1000EEEEv,comdat
	.weak	_ZNSt8literals15chrono_literalsli2msIJLc49ELc48ELc48EEEENSt6chrono8durationIlSt5ratioILl1ELl1000EEEEv
	.type	_ZNSt8literals15chrono_literalsli2msIJLc49ELc48ELc48EEEENSt6chrono8durationIlSt5ratioILl1ELl1000EEEEv, @function
_ZNSt8literals15chrono_literalsli2msIJLc49ELc48ELc48EEEENSt6chrono8durationIlSt5ratioILl1ELl1000EEEEv:
.LFB2982:
	.loc 1 948 0
	.cfi_startproc
	pushq	%rbp
	.cfi_def_cfa_offset 16
	.cfi_offset 6, -16
	movq	%rsp, %rbp
	.cfi_def_cfa_register 6
	.loc 1 949 0
	call	_ZNSt8literals15chrono_literals16__check_overflowINSt6chrono8durationIlSt5ratioILl1ELl1000EEEEJLc49ELc48ELc48EEEET_v
	popq	%rbp
	.cfi_def_cfa 7, 8
	ret
	.cfi_endproc
.LFE2982:
	.size	_ZNSt8literals15chrono_literalsli2msIJLc49ELc48ELc48EEEENSt6chrono8durationIlSt5ratioILl1ELl1000EEEEv, .-_ZNSt8literals15chrono_literalsli2msIJLc49ELc48ELc48EEEENSt6chrono8durationIlSt5ratioILl1ELl1000EEEEv
	.section	.rodata
.LC12:
	.string	"Vfh"
	.align 8
.LC13:
	.string	"Missing network interface option!"
.LC14:
	.string	"daemon"
.LC15:
	.string	"socket"
.LC16:
	.string	"setsockopt filter"
.LC17:
	.string	"setsockopt CAN FD"
.LC18:
	.string	"ioctl"
.LC19:
	.string	"bind"
.LC20:
	.string	"Started"
.LC21:
	.string	"read"
.LC22:
	.string	"close"
.LC23:
	.string	"Bye!"
	.text
	.globl	main
	.type	main, @function
main:
.LFB2981:
	.loc 4 132 0
	.cfi_startproc
	pushq	%rbp
	.cfi_def_cfa_offset 16
	.cfi_offset 6, -16
	movq	%rsp, %rbp
	.cfi_def_cfa_register 6
	subq	$368, %rsp
	movl	%edi, -356(%rbp)
	movq	%rsi, -368(%rbp)
	.loc 4 132 0
	movq	%fs:40, %rax
	movq	%rax, -8(%rbp)
	xorl	%eax, %eax
	.loc 4 137 0
	movb	$0, -341(%rbp)
.L57:
.LBB13:
	.loc 4 153 0
	movq	-368(%rbp), %rcx
	movl	-356(%rbp), %eax
	leaq	.LC12(%rip), %rdx
	movq	%rcx, %rsi
	movl	%eax, %edi
	call	getopt@PLT
	movl	%eax, -340(%rbp)
	cmpl	$-1, -340(%rbp)
	setne	%al
	testb	%al, %al
	je	.L50
	.loc 4 154 0
	movl	-340(%rbp), %eax
	cmpl	$102, %eax
	je	.L52
	cmpl	$104, %eax
	je	.L53
	cmpl	$86, %eax
	jne	.L80
	.loc 4 156 0
	call	version
	.loc 4 157 0
	movl	$0, %eax
	jmp	.L78
.L52:
	.loc 4 159 0
	movb	$1, -341(%rbp)
	.loc 4 160 0
	jmp	.L81
.L53:
	.loc 4 162 0
	call	usage
	.loc 4 163 0
	movl	$0, %eax
	jmp	.L78
.L80:
	.loc 4 165 0
	call	usage
	.loc 4 166 0
	movl	$1, %eax
	jmp	.L78
.L81:
	.loc 4 153 0
	jmp	.L57
.L50:
	.loc 4 171 0
	movl	-356(%rbp), %eax
	leal	-1(%rax), %edx
	movl	optind(%rip), %eax
	cmpl	%eax, %edx
	je	.L58
	.loc 4 172 0
	leaq	.LC13(%rip), %rsi
	leaq	_ZSt4cerr(%rip), %rdi
	call	_ZStlsISt11char_traitsIcEERSt13basic_ostreamIcT_ES5_PKc@PLT
	movq	%rax, %rdx
	movq	_ZSt4endlIcSt11char_traitsIcEERSt13basic_ostreamIT_T0_ES6_@GOTPCREL(%rip), %rax
	movq	%rax, %rsi
	movq	%rdx, %rdi
	call	_ZNSolsEPFRSoS_E@PLT
	.loc 4 173 0
	call	usage
	.loc 4 174 0
	movl	$1, %eax
	jmp	.L78
.L58:
	.loc 4 178 0
	movl	optind(%rip), %eax
	cltq
	leaq	0(,%rax,8), %rdx
	movq	-368(%rbp), %rax
	addq	%rdx, %rax
	movq	(%rax), %rax
	movq	%rax, -320(%rbp)
.LBE13:
	.loc 4 182 0
	movzbl	-341(%rbp), %eax
	xorl	$1, %eax
	testb	%al, %al
	je	.L59
	.loc 4 183 0
	movl	$1, %esi
	movl	$0, %edi
	call	daemon@PLT
	cmpl	$-1, %eax
	sete	%al
	testb	%al, %al
	je	.L59
	.loc 4 184 0
	leaq	.LC14(%rip), %rdi
	call	perror@PLT
	.loc 4 185 0
	movl	$1, %eax
	jmp	.L78
.L59:
	.loc 4 190 0
	leaq	onSignal(%rip), %rax
	movq	%rax, -160(%rbp)
	.loc 4 191 0
	leaq	-160(%rbp), %rax
	addq	$8, %rax
	movq	%rax, %rdi
	call	sigemptyset@PLT
	.loc 4 192 0
	movl	$0, -24(%rbp)
	.loc 4 193 0
	leaq	-160(%rbp), %rax
	movl	$0, %edx
	movq	%rax, %rsi
	movl	$2, %edi
	call	sigaction@PLT
	.loc 4 194 0
	leaq	-160(%rbp), %rax
	movl	$0, %edx
	movq	%rax, %rsi
	movl	$15, %edi
	call	sigaction@PLT
	.loc 4 195 0
	leaq	-160(%rbp), %rax
	movl	$0, %edx
	movq	%rax, %rsi
	movl	$3, %edi
	call	sigaction@PLT
	.loc 4 196 0
	leaq	-160(%rbp), %rax
	movl	$0, %edx
	movq	%rax, %rsi
	movl	$1, %edi
	call	sigaction@PLT
	.loc 4 199 0
	movl	$0, signalValue(%rip)
	.loc 4 202 0
	movl	$1, %edx
	movl	$3, %esi
	movl	$29, %edi
	call	socket@PLT
	movl	%eax, -336(%rbp)
	.loc 4 203 0
	cmpl	$-1, -336(%rbp)
	jne	.L60
	.loc 4 204 0
	leaq	.LC15(%rip), %rdi
	call	perror@PLT
	.loc 4 205 0
	jmp	.L61
.L60:
.LBB14:
	.loc 4 211 0
	movl	$160, -240(%rbp)
	.loc 4 212 0
	movl	$2047, -236(%rbp)
	.loc 4 213 0
	movl	$272, -232(%rbp)
	.loc 4 214 0
	movl	$2047, -228(%rbp)
	.loc 4 215 0
	movl	$800, -224(%rbp)
	.loc 4 216 0
	movl	$2047, -220(%rbp)
	.loc 4 218 0
	leaq	-240(%rbp), %rdx
	movl	-336(%rbp), %eax
	movl	$24, %r8d
	movq	%rdx, %rcx
	movl	$1, %edx
	movl	$101, %esi
	movl	%eax, %edi
	call	setsockopt@PLT
	movl	%eax, -332(%rbp)
	.loc 4 220 0
	cmpl	$-1, -332(%rbp)
	jne	.L62
	.loc 4 221 0
	leaq	.LC16(%rip), %rdi
	call	perror@PLT
	jmp	.L63
.L62:
.LBE14:
.LBB15:
	.loc 4 228 0
	movl	$1, -304(%rbp)
	.loc 4 230 0
	leaq	-304(%rbp), %rdx
	movl	-336(%rbp), %eax
	movl	$4, %r8d
	movq	%rdx, %rcx
	movl	$5, %edx
	movl	$101, %esi
	movl	%eax, %edi
	call	setsockopt@PLT
	movl	%eax, -332(%rbp)
	.loc 4 232 0
	cmpl	$-1, -332(%rbp)
	jne	.L64
	.loc 4 233 0
	leaq	.LC17(%rip), %rdi
	call	perror@PLT
	jmp	.L63
.L64:
.LBE15:
	.loc 4 239 0
	movq	-320(%rbp), %rcx
	leaq	-288(%rbp), %rax
	movl	$16, %edx
	movq	%rcx, %rsi
	movq	%rax, %rdi
	call	strncpy@PLT
	.loc 4 240 0
	leaq	-288(%rbp), %rdx
	movl	-336(%rbp), %eax
	movl	$35123, %esi
	movl	%eax, %edi
	movl	$0, %eax
	call	ioctl@PLT
	.loc 4 240 0
	cmpl	$-1, %eax
	sete	%al
	.loc 4 240 0
	testb	%al, %al
	je	.L65
	.loc 4 241 0
	leaq	.LC18(%rip), %rdi
	call	perror@PLT
	.loc 4 242 0
	jmp	.L63
.L65:
	.loc 4 246 0
	movw	$29, -304(%rbp)
	.loc 4 247 0
	movl	-272(%rbp), %eax
	.loc 4 247 0
	movl	%eax, -300(%rbp)
	.loc 4 248 0
	leaq	-304(%rbp), %rcx
	movl	-336(%rbp), %eax
	movl	$16, %edx
	movq	%rcx, %rsi
	movl	%eax, %edi
	call	bind@PLT
	movl	%eax, -332(%rbp)
	.loc 4 249 0
	cmpl	$-1, -332(%rbp)
	jne	.L66
	.loc 4 250 0
	leaq	.LC19(%rip), %rdi
	call	perror@PLT
	.loc 4 251 0
	jmp	.L63
.L66:
	.loc 4 255 0
	leaq	.LC20(%rip), %rsi
	leaq	_ZSt4cout(%rip), %rdi
	call	_ZStlsISt11char_traitsIcEERSt13basic_ostreamIcT_ES5_PKc@PLT
	movq	%rax, %rdx
	movq	_ZSt4endlIcSt11char_traitsIcEERSt13basic_ostreamIT_T0_ES6_@GOTPCREL(%rip), %rax
	movq	%rax, %rsi
	movq	%rdx, %rdi
	call	_ZNSolsEPFRSoS_E@PLT
.L76:
	.loc 4 258 0
	movl	signalValue(%rip), %eax
	testl	%eax, %eax
	jne	.L67
.LBB16:
	.loc 4 262 0
	leaq	-240(%rbp), %rcx
	movl	-336(%rbp), %eax
	movl	$72, %edx
	movq	%rcx, %rsi
	movl	%eax, %edi
	call	read@PLT
	movq	%rax, -312(%rbp)
	.loc 4 263 0
	movq	-312(%rbp), %rax
	cmpq	$16, %rax
	je	.L69
	cmpq	$72, %rax
	je	.L82
	cmpq	$-1, %rax
	je	.L71
	.loc 4 278 0
	jmp	.L75
.L69:
	.loc 4 265 0
	leaq	-240(%rbp), %rax
	movq	%rax, %rdi
	call	processFrame
	.loc 4 266 0
	jmp	.L75
.L71:
	.loc 4 272 0
	call	__errno_location@PLT
	movl	(%rax), %eax
	.loc 4 272 0
	cmpl	$4, %eax
	je	.L83
	.loc 4 275 0
	leaq	.LC21(%rip), %rdi
	call	perror@PLT
	.loc 4 276 0
	call	_ZNSt8literals15chrono_literalsli2msIJLc49ELc48ELc48EEEENSt6chrono8durationIlSt5ratioILl1ELl1000EEEEv
	movq	%rax, -328(%rbp)
	leaq	-328(%rbp), %rax
	movq	%rax, %rdi
	call	_ZNSt11this_thread9sleep_forIlSt5ratioILl1ELl1000EEEEvRKNSt6chrono8durationIT_T0_EE
	.loc 4 278 0
	jmp	.L75
.L82:
	.loc 4 269 0
	nop
	jmp	.L76
.L83:
	.loc 4 272 0
	nop
.L75:
.LBE16:
	.loc 4 258 0 discriminator 1
	jmp	.L76
.L67:
	.loc 4 283 0
	movl	-336(%rbp), %eax
	movl	%eax, %edi
	call	close@PLT
	cmpl	$-1, %eax
	sete	%al
	testb	%al, %al
	je	.L77
	.loc 4 284 0
	leaq	.LC22(%rip), %rdi
	call	perror@PLT
	.loc 4 285 0
	call	__errno_location@PLT
	movl	(%rax), %eax
	jmp	.L78
.L77:
	.loc 4 288 0
	movq	_ZSt4endlIcSt11char_traitsIcEERSt13basic_ostreamIT_T0_ES6_@GOTPCREL(%rip), %rax
	movq	%rax, %rsi
	leaq	_ZSt4cout(%rip), %rdi
	call	_ZNSolsEPFRSoS_E@PLT
	leaq	.LC23(%rip), %rsi
	movq	%rax, %rdi
	call	_ZStlsISt11char_traitsIcEERSt13basic_ostreamIcT_ES5_PKc@PLT
	movq	%rax, %rdx
	movq	_ZSt4endlIcSt11char_traitsIcEERSt13basic_ostreamIT_T0_ES6_@GOTPCREL(%rip), %rax
	movq	%rax, %rsi
	movq	%rdx, %rdi
	call	_ZNSolsEPFRSoS_E@PLT
	.loc 4 289 0
	movl	$0, %eax
	jmp	.L78
.L63:
	.loc 4 293 0
	movl	-336(%rbp), %eax
	movl	%eax, %edi
	call	close@PLT
.L61:
	.loc 4 295 0
	call	__errno_location@PLT
	movl	(%rax), %eax
.L78:
	.loc 4 296 0 discriminator 2
	movq	-8(%rbp), %rcx
	xorq	%fs:40, %rcx
	je	.L79
	.loc 4 296 0 is_stmt 0
	call	__stack_chk_fail@PLT
.L79:
	leave
	.cfi_def_cfa 7, 8
	ret
	.cfi_endproc
.LFE2981:
	.size	main, .-main
	.section	.text._ZSt7setfillIcESt8_SetfillIT_ES1_,"axG",@progbits,_ZSt7setfillIcESt8_SetfillIT_ES1_,comdat
	.weak	_ZSt7setfillIcESt8_SetfillIT_ES1_
	.type	_ZSt7setfillIcESt8_SetfillIT_ES1_, @function
_ZSt7setfillIcESt8_SetfillIT_ES1_:
.LFB3249:
	.loc 3 165 0 is_stmt 1
	.cfi_startproc
	pushq	%rbp
	.cfi_def_cfa_offset 16
	.cfi_offset 6, -16
	movq	%rsp, %rbp
	.cfi_def_cfa_register 6
	movl	%edi, %eax
	movb	%al, -4(%rbp)
	.loc 3 166 0
	movzbl	-4(%rbp), %eax
	popq	%rbp
	.cfi_def_cfa 7, 8
	ret
	.cfi_endproc
.LFE3249:
	.size	_ZSt7setfillIcESt8_SetfillIT_ES1_, .-_ZSt7setfillIcESt8_SetfillIT_ES1_
	.section	.text._ZNSt6chrono8durationIlSt5ratioILl1ELl1000EEE4zeroEv,"axG",@progbits,_ZNSt6chrono8durationIlSt5ratioILl1ELl1000EEE4zeroEv,comdat
	.weak	_ZNSt6chrono8durationIlSt5ratioILl1ELl1000EEE4zeroEv
	.type	_ZNSt6chrono8durationIlSt5ratioILl1ELl1000EEE4zeroEv, @function
_ZNSt6chrono8durationIlSt5ratioILl1ELl1000EEE4zeroEv:
.LFB3260:
	.loc 1 427 0
	.cfi_startproc
	pushq	%rbp
	.cfi_def_cfa_offset 16
	.cfi_offset 6, -16
	movq	%rsp, %rbp
	.cfi_def_cfa_register 6
	subq	$32, %rsp
	.loc 1 427 0
	movq	%fs:40, %rax
	movq	%rax, -8(%rbp)
	xorl	%eax, %eax
	.loc 1 428 0
	call	_ZNSt6chrono15duration_valuesIlE4zeroEv
	movq	%rax, -24(%rbp)
	leaq	-24(%rbp), %rdx
	leaq	-16(%rbp), %rax
	movq	%rdx, %rsi
	movq	%rax, %rdi
	call	_ZNSt6chrono8durationIlSt5ratioILl1ELl1000EEEC1IlvEERKT_
	movq	-16(%rbp), %rax
	movq	-8(%rbp), %rcx
	xorq	%fs:40, %rcx
	je	.L88
	call	__stack_chk_fail@PLT
.L88:
	leave
	.cfi_def_cfa 7, 8
	ret
	.cfi_endproc
.LFE3260:
	.size	_ZNSt6chrono8durationIlSt5ratioILl1ELl1000EEE4zeroEv, .-_ZNSt6chrono8durationIlSt5ratioILl1ELl1000EEE4zeroEv
	.section	.text._ZNSt6chronoleIlSt5ratioILl1ELl1000EElS2_EEbRKNS_8durationIT_T0_EERKNS3_IT1_T2_EE,"axG",@progbits,_ZNSt6chronoleIlSt5ratioILl1ELl1000EElS2_EEbRKNS_8durationIT_T0_EERKNS3_IT1_T2_EE,comdat
	.weak	_ZNSt6chronoleIlSt5ratioILl1ELl1000EElS2_EEbRKNS_8durationIT_T0_EERKNS3_IT1_T2_EE
	.type	_ZNSt6chronoleIlSt5ratioILl1ELl1000EElS2_EEbRKNS_8durationIT_T0_EERKNS3_IT1_T2_EE, @function
_ZNSt6chronoleIlSt5ratioILl1ELl1000EElS2_EEbRKNS_8durationIT_T0_EERKNS3_IT1_T2_EE:
.LFB3261:
	.loc 1 578 0
	.cfi_startproc
	pushq	%rbp
	.cfi_def_cfa_offset 16
	.cfi_offset 6, -16
	movq	%rsp, %rbp
	.cfi_def_cfa_register 6
	subq	$16, %rsp
	movq	%rdi, -8(%rbp)
	movq	%rsi, -16(%rbp)
	.loc 1 580 0
	movq	-8(%rbp), %rdx
	movq	-16(%rbp), %rax
	movq	%rdx, %rsi
	movq	%rax, %rdi
	call	_ZNSt6chronoltIlSt5ratioILl1ELl1000EElS2_EEbRKNS_8durationIT_T0_EERKNS3_IT1_T2_EE
	xorl	$1, %eax
	leave
	.cfi_def_cfa 7, 8
	ret
	.cfi_endproc
.LFE3261:
	.size	_ZNSt6chronoleIlSt5ratioILl1ELl1000EElS2_EEbRKNS_8durationIT_T0_EERKNS3_IT1_T2_EE, .-_ZNSt6chronoleIlSt5ratioILl1ELl1000EElS2_EEbRKNS_8durationIT_T0_EERKNS3_IT1_T2_EE
	.section	.text._ZNKSt6chrono8durationIlSt5ratioILl1ELl1000EEE5countEv,"axG",@progbits,_ZNKSt6chrono8durationIlSt5ratioILl1ELl1000EEE5countEv,comdat
	.align 2
	.weak	_ZNKSt6chrono8durationIlSt5ratioILl1ELl1000EEE5countEv
	.type	_ZNKSt6chrono8durationIlSt5ratioILl1ELl1000EEE5countEv, @function
_ZNKSt6chrono8durationIlSt5ratioILl1ELl1000EEE5countEv:
.LFB3263:
	.loc 1 342 0
	.cfi_startproc
	pushq	%rbp
	.cfi_def_cfa_offset 16
	.cfi_offset 6, -16
	movq	%rsp, %rbp
	.cfi_def_cfa_register 6
	movq	%rdi, -8(%rbp)
	.loc 1 343 0
	movq	-8(%rbp), %rax
	movq	(%rax), %rax
	popq	%rbp
	.cfi_def_cfa 7, 8
	ret
	.cfi_endproc
.LFE3263:
	.size	_ZNKSt6chrono8durationIlSt5ratioILl1ELl1000EEE5countEv, .-_ZNKSt6chrono8durationIlSt5ratioILl1ELl1000EEE5countEv
	.section	.text._ZNSt6chronoltIlSt5ratioILl1ELl1000EElS2_EEbRKNS_8durationIT_T0_EERKNS3_IT1_T2_EE,"axG",@progbits,_ZNSt6chronoltIlSt5ratioILl1ELl1000EElS2_EEbRKNS_8durationIT_T0_EERKNS3_IT1_T2_EE,comdat
	.weak	_ZNSt6chronoltIlSt5ratioILl1ELl1000EElS2_EEbRKNS_8durationIT_T0_EERKNS3_IT1_T2_EE
	.type	_ZNSt6chronoltIlSt5ratioILl1ELl1000EElS2_EEbRKNS_8durationIT_T0_EERKNS3_IT1_T2_EE, @function
_ZNSt6chronoltIlSt5ratioILl1ELl1000EElS2_EEbRKNS_8durationIT_T0_EERKNS3_IT1_T2_EE:
.LFB3262:
	.loc 1 559 0
	.cfi_startproc
	pushq	%rbp
	.cfi_def_cfa_offset 16
	.cfi_offset 6, -16
	movq	%rsp, %rbp
	.cfi_def_cfa_register 6
	pushq	%rbx
	subq	$56, %rsp
	.cfi_offset 3, -24
	movq	%rdi, -56(%rbp)
	movq	%rsi, -64(%rbp)
	.loc 1 559 0
	movq	%fs:40, %rax
	movq	%rax, -24(%rbp)
	xorl	%eax, %eax
	.loc 1 565 0
	movq	-56(%rbp), %rax
	movq	(%rax), %rax
	movq	%rax, -40(%rbp)
	leaq	-40(%rbp), %rax
	movq	%rax, %rdi
	call	_ZNKSt6chrono8durationIlSt5ratioILl1ELl1000EEE5countEv
	movq	%rax, %rbx
	movq	-64(%rbp), %rax
	movq	(%rax), %rax
	movq	%rax, -32(%rbp)
	leaq	-32(%rbp), %rax
	movq	%rax, %rdi
	call	_ZNKSt6chrono8durationIlSt5ratioILl1ELl1000EEE5countEv
	cmpq	%rax, %rbx
	setl	%al
	.loc 1 566 0
	movq	-24(%rbp), %rdx
	xorq	%fs:40, %rdx
	je	.L95
	call	__stack_chk_fail@PLT
.L95:
	addq	$56, %rsp
	popq	%rbx
	popq	%rbp
	.cfi_def_cfa 7, 8
	ret
	.cfi_endproc
.LFE3262:
	.size	_ZNSt6chronoltIlSt5ratioILl1ELl1000EElS2_EEbRKNS_8durationIT_T0_EERKNS3_IT1_T2_EE, .-_ZNSt6chronoltIlSt5ratioILl1ELl1000EElS2_EEbRKNS_8durationIT_T0_EERKNS3_IT1_T2_EE
	.section	.text._ZNSt6chrono20__duration_cast_implINS_8durationIlSt5ratioILl1ELl1EEEES2_ILl1ELl1000EElLb1ELb0EE6__castIlS5_EES4_RKNS1_IT_T0_EE,"axG",@progbits,_ZNSt6chrono20__duration_cast_implINS_8durationIlSt5ratioILl1ELl1EEEES2_ILl1ELl1000EElLb1ELb0EE6__castIlS5_EES4_RKNS1_IT_T0_EE,comdat
	.weak	_ZNSt6chrono20__duration_cast_implINS_8durationIlSt5ratioILl1ELl1EEEES2_ILl1ELl1000EElLb1ELb0EE6__castIlS5_EES4_RKNS1_IT_T0_EE
	.type	_ZNSt6chrono20__duration_cast_implINS_8durationIlSt5ratioILl1ELl1EEEES2_ILl1ELl1000EElLb1ELb0EE6__castIlS5_EES4_RKNS1_IT_T0_EE, @function
_ZNSt6chrono20__duration_cast_implINS_8durationIlSt5ratioILl1ELl1EEEES2_ILl1ELl1000EElLb1ELb0EE6__castIlS5_EES4_RKNS1_IT_T0_EE:
.LFB3265:
	.loc 1 159 0
	.cfi_startproc
	pushq	%rbp
	.cfi_def_cfa_offset 16
	.cfi_offset 6, -16
	movq	%rsp, %rbp
	.cfi_def_cfa_register 6
	subq	$48, %rsp
	movq	%rdi, -40(%rbp)
	.loc 1 159 0
	movq	%fs:40, %rax
	movq	%rax, -8(%rbp)
	xorl	%eax, %eax
	.loc 1 163 0
	movq	-40(%rbp), %rax
	movq	%rax, %rdi
	call	_ZNKSt6chrono8durationIlSt5ratioILl1ELl1000EEE5countEv
	movq	%rax, %rcx
	movabsq	$2361183241434822607, %rdx
	movq	%rcx, %rax
	imulq	%rdx
	sarq	$7, %rdx
	movq	%rcx, %rax
	sarq	$63, %rax
	subq	%rax, %rdx
	movq	%rdx, %rax
	movq	%rax, -24(%rbp)
	leaq	-24(%rbp), %rdx
	leaq	-16(%rbp), %rax
	movq	%rdx, %rsi
	movq	%rax, %rdi
	call	_ZNSt6chrono8durationIlSt5ratioILl1ELl1EEEC1IlvEERKT_
	movq	-16(%rbp), %rax
	.loc 1 164 0
	movq	-8(%rbp), %rsi
	xorq	%fs:40, %rsi
	je	.L98
	call	__stack_chk_fail@PLT
.L98:
	leave
	.cfi_def_cfa 7, 8
	ret
	.cfi_endproc
.LFE3265:
	.size	_ZNSt6chrono20__duration_cast_implINS_8durationIlSt5ratioILl1ELl1EEEES2_ILl1ELl1000EElLb1ELb0EE6__castIlS5_EES4_RKNS1_IT_T0_EE, .-_ZNSt6chrono20__duration_cast_implINS_8durationIlSt5ratioILl1ELl1EEEES2_ILl1ELl1000EElLb1ELb0EE6__castIlS5_EES4_RKNS1_IT_T0_EE
	.section	.text._ZNSt6chrono13duration_castINS_8durationIlSt5ratioILl1ELl1EEEElS2_ILl1ELl1000EEEENSt9enable_ifIXsrNS_13__is_durationIT_EE5valueES8_E4typeERKNS1_IT0_T1_EE,"axG",@progbits,_ZNSt6chrono13duration_castINS_8durationIlSt5ratioILl1ELl1EEEElS2_ILl1ELl1000EEEENSt9enable_ifIXsrNS_13__is_durationIT_EE5valueES8_E4typeERKNS1_IT0_T1_EE,comdat
	.weak	_ZNSt6chrono13duration_castINS_8durationIlSt5ratioILl1ELl1EEEElS2_ILl1ELl1000EEEENSt9enable_ifIXsrNS_13__is_durationIT_EE5valueES8_E4typeERKNS1_IT0_T1_EE
	.type	_ZNSt6chrono13duration_castINS_8durationIlSt5ratioILl1ELl1EEEElS2_ILl1ELl1000EEEENSt9enable_ifIXsrNS_13__is_durationIT_EE5valueES8_E4typeERKNS1_IT0_T1_EE, @function
_ZNSt6chrono13duration_castINS_8durationIlSt5ratioILl1ELl1EEEElS2_ILl1ELl1000EEEENSt9enable_ifIXsrNS_13__is_durationIT_EE5valueES8_E4typeERKNS1_IT0_T1_EE:
.LFB3264:
	.loc 1 194 0
	.cfi_startproc
	pushq	%rbp
	.cfi_def_cfa_offset 16
	.cfi_offset 6, -16
	movq	%rsp, %rbp
	.cfi_def_cfa_register 6
	subq	$16, %rsp
	movq	%rdi, -8(%rbp)
	.loc 1 203 0
	movq	-8(%rbp), %rax
	movq	%rax, %rdi
	call	_ZNSt6chrono20__duration_cast_implINS_8durationIlSt5ratioILl1ELl1EEEES2_ILl1ELl1000EElLb1ELb0EE6__castIlS5_EES4_RKNS1_IT_T0_EE
	.loc 1 204 0
	leave
	.cfi_def_cfa 7, 8
	ret
	.cfi_endproc
.LFE3264:
	.size	_ZNSt6chrono13duration_castINS_8durationIlSt5ratioILl1ELl1EEEElS2_ILl1ELl1000EEEENSt9enable_ifIXsrNS_13__is_durationIT_EE5valueES8_E4typeERKNS1_IT0_T1_EE, .-_ZNSt6chrono13duration_castINS_8durationIlSt5ratioILl1ELl1EEEElS2_ILl1ELl1000EEEENSt9enable_ifIXsrNS_13__is_durationIT_EE5valueES8_E4typeERKNS1_IT0_T1_EE
	.section	.text._ZNSt6chrono20__duration_cast_implINS_8durationIlSt5ratioILl1ELl1000EEEES2_ILl1000ELl1EElLb0ELb1EE6__castIlS2_ILl1ELl1EEEES4_RKNS1_IT_T0_EE,"axG",@progbits,_ZNSt6chrono20__duration_cast_implINS_8durationIlSt5ratioILl1ELl1000EEEES2_ILl1000ELl1EElLb0ELb1EE6__castIlS2_ILl1ELl1EEEES4_RKNS1_IT_T0_EE,comdat
	.weak	_ZNSt6chrono20__duration_cast_implINS_8durationIlSt5ratioILl1ELl1000EEEES2_ILl1000ELl1EElLb0ELb1EE6__castIlS2_ILl1ELl1EEEES4_RKNS1_IT_T0_EE
	.type	_ZNSt6chrono20__duration_cast_implINS_8durationIlSt5ratioILl1ELl1000EEEES2_ILl1000ELl1EElLb0ELb1EE6__castIlS2_ILl1ELl1EEEES4_RKNS1_IT_T0_EE, @function
_ZNSt6chrono20__duration_cast_implINS_8durationIlSt5ratioILl1ELl1000EEEES2_ILl1000ELl1EElLb0ELb1EE6__castIlS2_ILl1ELl1EEEES4_RKNS1_IT_T0_EE:
.LFB3269:
	.loc 1 172 0
	.cfi_startproc
	pushq	%rbp
	.cfi_def_cfa_offset 16
	.cfi_offset 6, -16
	movq	%rsp, %rbp
	.cfi_def_cfa_register 6
	subq	$48, %rsp
	movq	%rdi, -40(%rbp)
	.loc 1 172 0
	movq	%fs:40, %rax
	movq	%rax, -8(%rbp)
	xorl	%eax, %eax
	.loc 1 176 0
	movq	-40(%rbp), %rax
	movq	%rax, %rdi
	call	_ZNKSt6chrono8durationIlSt5ratioILl1ELl1EEE5countEv
	imulq	$1000, %rax, %rax
	movq	%rax, -24(%rbp)
	leaq	-24(%rbp), %rdx
	leaq	-16(%rbp), %rax
	movq	%rdx, %rsi
	movq	%rax, %rdi
	call	_ZNSt6chrono8durationIlSt5ratioILl1ELl1000EEEC1IlvEERKT_
	movq	-16(%rbp), %rax
	.loc 1 177 0
	movq	-8(%rbp), %rcx
	xorq	%fs:40, %rcx
	je	.L103
	call	__stack_chk_fail@PLT
.L103:
	leave
	.cfi_def_cfa 7, 8
	ret
	.cfi_endproc
.LFE3269:
	.size	_ZNSt6chrono20__duration_cast_implINS_8durationIlSt5ratioILl1ELl1000EEEES2_ILl1000ELl1EElLb0ELb1EE6__castIlS2_ILl1ELl1EEEES4_RKNS1_IT_T0_EE, .-_ZNSt6chrono20__duration_cast_implINS_8durationIlSt5ratioILl1ELl1000EEEES2_ILl1000ELl1EElLb0ELb1EE6__castIlS2_ILl1ELl1EEEES4_RKNS1_IT_T0_EE
	.section	.text._ZNSt6chrono13duration_castINS_8durationIlSt5ratioILl1ELl1000EEEElS2_ILl1ELl1EEEENSt9enable_ifIXsrNS_13__is_durationIT_EE5valueES8_E4typeERKNS1_IT0_T1_EE,"axG",@progbits,_ZNSt6chrono13duration_castINS_8durationIlSt5ratioILl1ELl1000EEEElS2_ILl1ELl1EEEENSt9enable_ifIXsrNS_13__is_durationIT_EE5valueES8_E4typeERKNS1_IT0_T1_EE,comdat
	.weak	_ZNSt6chrono13duration_castINS_8durationIlSt5ratioILl1ELl1000EEEElS2_ILl1ELl1EEEENSt9enable_ifIXsrNS_13__is_durationIT_EE5valueES8_E4typeERKNS1_IT0_T1_EE
	.type	_ZNSt6chrono13duration_castINS_8durationIlSt5ratioILl1ELl1000EEEElS2_ILl1ELl1EEEENSt9enable_ifIXsrNS_13__is_durationIT_EE5valueES8_E4typeERKNS1_IT0_T1_EE, @function
_ZNSt6chrono13duration_castINS_8durationIlSt5ratioILl1ELl1000EEEElS2_ILl1ELl1EEEENSt9enable_ifIXsrNS_13__is_durationIT_EE5valueES8_E4typeERKNS1_IT0_T1_EE:
.LFB3268:
	.loc 1 194 0
	.cfi_startproc
	pushq	%rbp
	.cfi_def_cfa_offset 16
	.cfi_offset 6, -16
	movq	%rsp, %rbp
	.cfi_def_cfa_register 6
	subq	$16, %rsp
	movq	%rdi, -8(%rbp)
	.loc 1 203 0
	movq	-8(%rbp), %rax
	movq	%rax, %rdi
	call	_ZNSt6chrono20__duration_cast_implINS_8durationIlSt5ratioILl1ELl1000EEEES2_ILl1000ELl1EElLb0ELb1EE6__castIlS2_ILl1ELl1EEEES4_RKNS1_IT_T0_EE
	.loc 1 204 0
	leave
	.cfi_def_cfa 7, 8
	ret
	.cfi_endproc
.LFE3268:
	.size	_ZNSt6chrono13duration_castINS_8durationIlSt5ratioILl1ELl1000EEEElS2_ILl1ELl1EEEENSt9enable_ifIXsrNS_13__is_durationIT_EE5valueES8_E4typeERKNS1_IT0_T1_EE, .-_ZNSt6chrono13duration_castINS_8durationIlSt5ratioILl1ELl1000EEEElS2_ILl1ELl1EEEENSt9enable_ifIXsrNS_13__is_durationIT_EE5valueES8_E4typeERKNS1_IT0_T1_EE
	.section	.text._ZNSt6chrono8durationIlSt5ratioILl1ELl1000EEEC2IlS1_ILl1ELl1EEvEERKNS0_IT_T0_EE,"axG",@progbits,_ZNSt6chrono8durationIlSt5ratioILl1ELl1000EEEC5IlS1_ILl1ELl1EEvEERKNS0_IT_T0_EE,comdat
	.align 2
	.weak	_ZNSt6chrono8durationIlSt5ratioILl1ELl1000EEEC2IlS1_ILl1ELl1EEvEERKNS0_IT_T0_EE
	.type	_ZNSt6chrono8durationIlSt5ratioILl1ELl1000EEEC2IlS1_ILl1ELl1EEvEERKNS0_IT_T0_EE, @function
_ZNSt6chrono8durationIlSt5ratioILl1ELl1000EEEC2IlS1_ILl1ELl1EEvEERKNS0_IT_T0_EE:
.LFB3270:
	.loc 1 334 0
	.cfi_startproc
	pushq	%rbp
	.cfi_def_cfa_offset 16
	.cfi_offset 6, -16
	movq	%rsp, %rbp
	.cfi_def_cfa_register 6
	subq	$32, %rsp
	movq	%rdi, -24(%rbp)
	movq	%rsi, -32(%rbp)
	.loc 1 334 0
	movq	%fs:40, %rax
	movq	%rax, -8(%rbp)
	xorl	%eax, %eax
.LBB17:
	.loc 1 335 0
	movq	-32(%rbp), %rax
	movq	%rax, %rdi
	call	_ZNSt6chrono13duration_castINS_8durationIlSt5ratioILl1ELl1000EEEElS2_ILl1ELl1EEEENSt9enable_ifIXsrNS_13__is_durationIT_EE5valueES8_E4typeERKNS1_IT0_T1_EE
	movq	%rax, -16(%rbp)
	leaq	-16(%rbp), %rax
	movq	%rax, %rdi
	call	_ZNKSt6chrono8durationIlSt5ratioILl1ELl1000EEE5countEv
	movq	%rax, %rdx
	movq	-24(%rbp), %rax
	movq	%rdx, (%rax)
.LBE17:
	nop
	movq	-8(%rbp), %rax
	xorq	%fs:40, %rax
	je	.L107
	call	__stack_chk_fail@PLT
.L107:
	leave
	.cfi_def_cfa 7, 8
	ret
	.cfi_endproc
.LFE3270:
	.size	_ZNSt6chrono8durationIlSt5ratioILl1ELl1000EEEC2IlS1_ILl1ELl1EEvEERKNS0_IT_T0_EE, .-_ZNSt6chrono8durationIlSt5ratioILl1ELl1000EEEC2IlS1_ILl1ELl1EEvEERKNS0_IT_T0_EE
	.weak	_ZNSt6chrono8durationIlSt5ratioILl1ELl1000EEEC1IlS1_ILl1ELl1EEvEERKNS0_IT_T0_EE
	.set	_ZNSt6chrono8durationIlSt5ratioILl1ELl1000EEEC1IlS1_ILl1ELl1EEvEERKNS0_IT_T0_EE,_ZNSt6chrono8durationIlSt5ratioILl1ELl1000EEEC2IlS1_ILl1ELl1EEvEERKNS0_IT_T0_EE
	.section	.text._ZNSt6chronomiIlSt5ratioILl1ELl1000EElS1_ILl1ELl1EEEENSt11common_typeIJNS_8durationIT_T0_EENS5_IT1_T2_EEEE4typeERKS8_RKSB_,"axG",@progbits,_ZNSt6chronomiIlSt5ratioILl1ELl1000EElS1_ILl1ELl1EEEENSt11common_typeIJNS_8durationIT_T0_EENS5_IT1_T2_EEEE4typeERKS8_RKSB_,comdat
	.weak	_ZNSt6chronomiIlSt5ratioILl1ELl1000EElS1_ILl1ELl1EEEENSt11common_typeIJNS_8durationIT_T0_EENS5_IT1_T2_EEEE4typeERKS8_RKSB_
	.type	_ZNSt6chronomiIlSt5ratioILl1ELl1000EElS1_ILl1ELl1EEEENSt11common_typeIJNS_8durationIT_T0_EENS5_IT1_T2_EEEE4typeERKS8_RKSB_, @function
_ZNSt6chronomiIlSt5ratioILl1ELl1000EElS1_ILl1ELl1EEEENSt11common_typeIJNS_8durationIT_T0_EENS5_IT1_T2_EEEE4typeERKS8_RKSB_:
.LFB3266:
	.loc 1 459 0
	.cfi_startproc
	pushq	%rbp
	.cfi_def_cfa_offset 16
	.cfi_offset 6, -16
	movq	%rsp, %rbp
	.cfi_def_cfa_register 6
	pushq	%rbx
	subq	$72, %rsp
	.cfi_offset 3, -24
	movq	%rdi, -72(%rbp)
	movq	%rsi, -80(%rbp)
	.loc 1 459 0
	movq	%fs:40, %rax
	movq	%rax, -24(%rbp)
	xorl	%eax, %eax
	.loc 1 465 0
	movq	-72(%rbp), %rax
	movq	(%rax), %rax
	movq	%rax, -56(%rbp)
	leaq	-56(%rbp), %rax
	movq	%rax, %rdi
	call	_ZNKSt6chrono8durationIlSt5ratioILl1ELl1000EEE5countEv
	movq	%rax, %rbx
	movq	-80(%rbp), %rdx
	leaq	-48(%rbp), %rax
	movq	%rdx, %rsi
	movq	%rax, %rdi
	call	_ZNSt6chrono8durationIlSt5ratioILl1ELl1000EEEC1IlS1_ILl1ELl1EEvEERKNS0_IT_T0_EE
	leaq	-48(%rbp), %rax
	movq	%rax, %rdi
	call	_ZNKSt6chrono8durationIlSt5ratioILl1ELl1000EEE5countEv
	subq	%rax, %rbx
	movq	%rbx, %rax
	movq	%rax, -40(%rbp)
	leaq	-40(%rbp), %rdx
	leaq	-32(%rbp), %rax
	movq	%rdx, %rsi
	movq	%rax, %rdi
	call	_ZNSt6chrono8durationIlSt5ratioILl1ELl1000EEEC1IlvEERKT_
	movq	-32(%rbp), %rax
	.loc 1 466 0
	movq	-24(%rbp), %rcx
	xorq	%fs:40, %rcx
	je	.L110
	call	__stack_chk_fail@PLT
.L110:
	addq	$72, %rsp
	popq	%rbx
	popq	%rbp
	.cfi_def_cfa 7, 8
	ret
	.cfi_endproc
.LFE3266:
	.size	_ZNSt6chronomiIlSt5ratioILl1ELl1000EElS1_ILl1ELl1EEEENSt11common_typeIJNS_8durationIT_T0_EENS5_IT1_T2_EEEE4typeERKS8_RKSB_, .-_ZNSt6chronomiIlSt5ratioILl1ELl1000EElS1_ILl1ELl1EEEENSt11common_typeIJNS_8durationIT_T0_EENS5_IT1_T2_EEEE4typeERKS8_RKSB_
	.section	.text._ZNSt6chrono20__duration_cast_implINS_8durationIlSt5ratioILl1ELl1000000000EEEES2_ILl1000000ELl1EElLb0ELb1EE6__castIlS2_ILl1ELl1000EEEES4_RKNS1_IT_T0_EE,"axG",@progbits,_ZNSt6chrono20__duration_cast_implINS_8durationIlSt5ratioILl1ELl1000000000EEEES2_ILl1000000ELl1EElLb0ELb1EE6__castIlS2_ILl1ELl1000EEEES4_RKNS1_IT_T0_EE,comdat
	.weak	_ZNSt6chrono20__duration_cast_implINS_8durationIlSt5ratioILl1ELl1000000000EEEES2_ILl1000000ELl1EElLb0ELb1EE6__castIlS2_ILl1ELl1000EEEES4_RKNS1_IT_T0_EE
	.type	_ZNSt6chrono20__duration_cast_implINS_8durationIlSt5ratioILl1ELl1000000000EEEES2_ILl1000000ELl1EElLb0ELb1EE6__castIlS2_ILl1ELl1000EEEES4_RKNS1_IT_T0_EE, @function
_ZNSt6chrono20__duration_cast_implINS_8durationIlSt5ratioILl1ELl1000000000EEEES2_ILl1000000ELl1EElLb0ELb1EE6__castIlS2_ILl1ELl1000EEEES4_RKNS1_IT_T0_EE:
.LFB3273:
	.loc 1 172 0
	.cfi_startproc
	pushq	%rbp
	.cfi_def_cfa_offset 16
	.cfi_offset 6, -16
	movq	%rsp, %rbp
	.cfi_def_cfa_register 6
	subq	$48, %rsp
	movq	%rdi, -40(%rbp)
	.loc 1 172 0
	movq	%fs:40, %rax
	movq	%rax, -8(%rbp)
	xorl	%eax, %eax
	.loc 1 176 0
	movq	-40(%rbp), %rax
	movq	%rax, %rdi
	call	_ZNKSt6chrono8durationIlSt5ratioILl1ELl1000EEE5countEv
	imulq	$1000000, %rax, %rax
	movq	%rax, -24(%rbp)
	leaq	-24(%rbp), %rdx
	leaq	-16(%rbp), %rax
	movq	%rdx, %rsi
	movq	%rax, %rdi
	call	_ZNSt6chrono8durationIlSt5ratioILl1ELl1000000000EEEC1IlvEERKT_
	movq	-16(%rbp), %rax
	.loc 1 177 0
	movq	-8(%rbp), %rcx
	xorq	%fs:40, %rcx
	je	.L113
	call	__stack_chk_fail@PLT
.L113:
	leave
	.cfi_def_cfa 7, 8
	ret
	.cfi_endproc
.LFE3273:
	.size	_ZNSt6chrono20__duration_cast_implINS_8durationIlSt5ratioILl1ELl1000000000EEEES2_ILl1000000ELl1EElLb0ELb1EE6__castIlS2_ILl1ELl1000EEEES4_RKNS1_IT_T0_EE, .-_ZNSt6chrono20__duration_cast_implINS_8durationIlSt5ratioILl1ELl1000000000EEEES2_ILl1000000ELl1EElLb0ELb1EE6__castIlS2_ILl1ELl1000EEEES4_RKNS1_IT_T0_EE
	.section	.text._ZNSt6chrono13duration_castINS_8durationIlSt5ratioILl1ELl1000000000EEEElS2_ILl1ELl1000EEEENSt9enable_ifIXsrNS_13__is_durationIT_EE5valueES8_E4typeERKNS1_IT0_T1_EE,"axG",@progbits,_ZNSt6chrono13duration_castINS_8durationIlSt5ratioILl1ELl1000000000EEEElS2_ILl1ELl1000EEEENSt9enable_ifIXsrNS_13__is_durationIT_EE5valueES8_E4typeERKNS1_IT0_T1_EE,comdat
	.weak	_ZNSt6chrono13duration_castINS_8durationIlSt5ratioILl1ELl1000000000EEEElS2_ILl1ELl1000EEEENSt9enable_ifIXsrNS_13__is_durationIT_EE5valueES8_E4typeERKNS1_IT0_T1_EE
	.type	_ZNSt6chrono13duration_castINS_8durationIlSt5ratioILl1ELl1000000000EEEElS2_ILl1ELl1000EEEENSt9enable_ifIXsrNS_13__is_durationIT_EE5valueES8_E4typeERKNS1_IT0_T1_EE, @function
_ZNSt6chrono13duration_castINS_8durationIlSt5ratioILl1ELl1000000000EEEElS2_ILl1ELl1000EEEENSt9enable_ifIXsrNS_13__is_durationIT_EE5valueES8_E4typeERKNS1_IT0_T1_EE:
.LFB3272:
	.loc 1 194 0
	.cfi_startproc
	pushq	%rbp
	.cfi_def_cfa_offset 16
	.cfi_offset 6, -16
	movq	%rsp, %rbp
	.cfi_def_cfa_register 6
	subq	$16, %rsp
	movq	%rdi, -8(%rbp)
	.loc 1 203 0
	movq	-8(%rbp), %rax
	movq	%rax, %rdi
	call	_ZNSt6chrono20__duration_cast_implINS_8durationIlSt5ratioILl1ELl1000000000EEEES2_ILl1000000ELl1EElLb0ELb1EE6__castIlS2_ILl1ELl1000EEEES4_RKNS1_IT_T0_EE
	.loc 1 204 0
	leave
	.cfi_def_cfa 7, 8
	ret
	.cfi_endproc
.LFE3272:
	.size	_ZNSt6chrono13duration_castINS_8durationIlSt5ratioILl1ELl1000000000EEEElS2_ILl1ELl1000EEEENSt9enable_ifIXsrNS_13__is_durationIT_EE5valueES8_E4typeERKNS1_IT0_T1_EE, .-_ZNSt6chrono13duration_castINS_8durationIlSt5ratioILl1ELl1000000000EEEElS2_ILl1ELl1000EEEENSt9enable_ifIXsrNS_13__is_durationIT_EE5valueES8_E4typeERKNS1_IT0_T1_EE
	.section	.text._ZNSt11this_thread9sleep_forIlSt5ratioILl1ELl1000EEEEvRKNSt6chrono8durationIT_T0_EE,"axG",@progbits,_ZNSt11this_thread9sleep_forIlSt5ratioILl1ELl1000EEEEvRKNSt6chrono8durationIT_T0_EE,comdat
	.weak	_ZNSt11this_thread9sleep_forIlSt5ratioILl1ELl1000EEEEvRKNSt6chrono8durationIT_T0_EE
	.type	_ZNSt11this_thread9sleep_forIlSt5ratioILl1ELl1000EEEEvRKNSt6chrono8durationIT_T0_EE, @function
_ZNSt11this_thread9sleep_forIlSt5ratioILl1ELl1000EEEEvRKNSt6chrono8durationIT_T0_EE:
.LFB3259:
	.file 5 "/usr/include/c++/7/thread"
	.loc 5 361 0
	.cfi_startproc
	pushq	%rbp
	.cfi_def_cfa_offset 16
	.cfi_offset 6, -16
	movq	%rsp, %rbp
	.cfi_def_cfa_register 6
	subq	$64, %rsp
	movq	%rdi, -56(%rbp)
	.loc 5 361 0
	movq	%fs:40, %rax
	movq	%rax, -8(%rbp)
	xorl	%eax, %eax
	.loc 5 363 0
	call	_ZNSt6chrono8durationIlSt5ratioILl1ELl1000EEE4zeroEv
	movq	%rax, -32(%rbp)
	leaq	-32(%rbp), %rdx
	movq	-56(%rbp), %rax
	movq	%rdx, %rsi
	movq	%rax, %rdi
	call	_ZNSt6chronoleIlSt5ratioILl1ELl1000EElS2_EEbRKNS_8durationIT_T0_EERKNS3_IT1_T2_EE
	testb	%al, %al
	jne	.L124
	.loc 5 365 0
	movq	-56(%rbp), %rax
	movq	%rax, %rdi
	call	_ZNSt6chrono13duration_castINS_8durationIlSt5ratioILl1ELl1EEEElS2_ILl1ELl1000EEEENSt9enable_ifIXsrNS_13__is_durationIT_EE5valueES8_E4typeERKNS1_IT0_T1_EE
	movq	%rax, -48(%rbp)
	.loc 5 366 0
	leaq	-48(%rbp), %rdx
	movq	-56(%rbp), %rax
	movq	%rdx, %rsi
	movq	%rax, %rdi
	call	_ZNSt6chronomiIlSt5ratioILl1ELl1000EElS1_ILl1ELl1EEEENSt11common_typeIJNS_8durationIT_T0_EENS5_IT1_T2_EEEE4typeERKS8_RKSB_
	movq	%rax, -32(%rbp)
	leaq	-32(%rbp), %rax
	movq	%rax, %rdi
	call	_ZNSt6chrono13duration_castINS_8durationIlSt5ratioILl1ELl1000000000EEEElS2_ILl1ELl1000EEEENSt9enable_ifIXsrNS_13__is_durationIT_EE5valueES8_E4typeERKNS1_IT0_T1_EE
	movq	%rax, -40(%rbp)
	.loc 5 370 0
	leaq	-48(%rbp), %rax
	movq	%rax, %rdi
	call	_ZNKSt6chrono8durationIlSt5ratioILl1ELl1EEE5countEv
	.loc 5 368 0
	movq	%rax, -32(%rbp)
	.loc 5 371 0
	leaq	-40(%rbp), %rax
	movq	%rax, %rdi
	call	_ZNKSt6chrono8durationIlSt5ratioILl1ELl1000000000EEE5countEv
	.loc 5 368 0
	movq	%rax, -24(%rbp)
.L122:
	.loc 5 373 0
	leaq	-32(%rbp), %rdx
	leaq	-32(%rbp), %rax
	movq	%rdx, %rsi
	movq	%rax, %rdi
	call	nanosleep@PLT
	cmpl	$-1, %eax
	jne	.L119
	.loc 5 373 0 is_stmt 0 discriminator 2
	call	__errno_location@PLT
	movl	(%rax), %eax
	cmpl	$4, %eax
	jne	.L119
	.loc 5 373 0 discriminator 4
	movl	$1, %eax
	jmp	.L120
.L119:
	.loc 5 373 0 discriminator 5
	movl	$0, %eax
.L120:
	.loc 5 373 0 discriminator 7
	testb	%al, %al
	je	.L116
	.loc 5 373 0
	jmp	.L122
.L124:
	.loc 5 364 0 is_stmt 1
	nop
.L116:
	.loc 5 378 0
	movq	-8(%rbp), %rax
	xorq	%fs:40, %rax
	je	.L123
	call	__stack_chk_fail@PLT
.L123:
	leave
	.cfi_def_cfa 7, 8
	ret
	.cfi_endproc
.LFE3259:
	.size	_ZNSt11this_thread9sleep_forIlSt5ratioILl1ELl1000EEEEvRKNSt6chrono8durationIT_T0_EE, .-_ZNSt11this_thread9sleep_forIlSt5ratioILl1ELl1000EEEEvRKNSt6chrono8durationIT_T0_EE
	.text
	.type	_Z41__static_initialization_and_destruction_0ii, @function
_Z41__static_initialization_and_destruction_0ii:
.LFB3545:
	.loc 4 299 0
	.cfi_startproc
	pushq	%rbp
	.cfi_def_cfa_offset 16
	.cfi_offset 6, -16
	movq	%rsp, %rbp
	.cfi_def_cfa_register 6
	subq	$16, %rsp
	movl	%edi, -4(%rbp)
	movl	%esi, -8(%rbp)
	.loc 4 299 0
	cmpl	$1, -4(%rbp)
	jne	.L127
	.loc 4 299 0 is_stmt 0 discriminator 1
	cmpl	$65535, -8(%rbp)
	jne	.L127
	.file 6 "/usr/include/c++/7/iostream"
	.loc 6 74 0 is_stmt 1
	leaq	_ZStL8__ioinit(%rip), %rdi
	call	_ZNSt8ios_base4InitC1Ev@PLT
	leaq	__dso_handle(%rip), %rdx
	leaq	_ZStL8__ioinit(%rip), %rsi
	movq	_ZNSt8ios_base4InitD1Ev@GOTPCREL(%rip), %rax
	movq	%rax, %rdi
	call	__cxa_atexit@PLT
.L127:
	.loc 4 299 0
	nop
	leave
	.cfi_def_cfa 7, 8
	ret
	.cfi_endproc
.LFE3545:
	.size	_Z41__static_initialization_and_destruction_0ii, .-_Z41__static_initialization_and_destruction_0ii
	.weak	_ZNSt17integral_constantIlLl100EE5valueE
	.section	.rodata._ZNSt17integral_constantIlLl100EE5valueE,"aG",@progbits,_ZNSt17integral_constantIlLl100EE5valueE,comdat
	.align 8
	.type	_ZNSt17integral_constantIlLl100EE5valueE, @gnu_unique_object
	.size	_ZNSt17integral_constantIlLl100EE5valueE, 8
_ZNSt17integral_constantIlLl100EE5valueE:
	.quad	100
	.text
	.type	_GLOBAL__sub_I_signalValue, @function
_GLOBAL__sub_I_signalValue:
.LFB3546:
	.loc 4 299 0
	.cfi_startproc
	pushq	%rbp
	.cfi_def_cfa_offset 16
	.cfi_offset 6, -16
	movq	%rsp, %rbp
	.cfi_def_cfa_register 6
	.loc 4 299 0
	movl	$65535, %esi
	movl	$1, %edi
	call	_Z41__static_initialization_and_destruction_0ii
	popq	%rbp
	.cfi_def_cfa 7, 8
	ret
	.cfi_endproc
.LFE3546:
	.size	_GLOBAL__sub_I_signalValue, .-_GLOBAL__sub_I_signalValue
	.section	.init_array,"aw"
	.align 8
	.quad	_GLOBAL__sub_I_signalValue
	.text
.Letext0:
	.file 7 "/usr/include/asm-generic/int-ll64.h"
	.file 8 "/usr/include/linux/socket.h"
	.file 9 "/usr/include/linux/can.h"
	.file 10 "/usr/include/x86_64-linux-gnu/bits/types.h"
	.file 11 "/usr/include/x86_64-linux-gnu/bits/types/clock_t.h"
	.file 12 "/usr/include/x86_64-linux-gnu/bits/types/time_t.h"
	.file 13 "/usr/lib/gcc/x86_64-linux-gnu/7/include/stddef.h"
	.file 14 "/usr/include/x86_64-linux-gnu/bits/stdint-intn.h"
	.file 15 "/usr/include/x86_64-linux-gnu/bits/types/__sigset_t.h"
	.file 16 "/usr/include/x86_64-linux-gnu/bits/types/struct_timespec.h"
	.file 17 "/usr/include/x86_64-linux-gnu/bits/pthreadtypes.h"
	.file 18 "/usr/include/x86_64-linux-gnu/bits/sockaddr.h"
	.file 19 "/usr/include/x86_64-linux-gnu/bits/socket.h"
	.file 20 "/usr/include/net/if.h"
	.file 21 "/usr/include/unistd.h"
	.file 22 "/usr/include/x86_64-linux-gnu/bits/getopt_core.h"
	.file 23 "/usr/include/c++/7/type_traits"
	.file 24 "/usr/include/x86_64-linux-gnu/c++/7/bits/c++config.h"
	.file 25 "/usr/include/c++/7/cstdint"
	.file 26 "/usr/include/c++/7/ctime"
	.file 27 "/usr/include/c++/7/ratio"
	.file 28 "/usr/include/c++/7/bits/basic_string.h"
	.file 29 "/usr/include/c++/7/cwchar"
	.file 30 "/usr/include/c++/7/clocale"
	.file 31 "/usr/include/c++/7/bits/cpp_type_traits.h"
	.file 32 "/usr/include/linux/can/raw.h"
	.file 33 "/usr/include/c++/7/bits/stl_pair.h"
	.file 34 "/usr/include/c++/7/debug/debug.h"
	.file 35 "/usr/include/c++/7/bits/char_traits.h"
	.file 36 "/usr/include/c++/7/bits/exception_ptr.h"
	.file 37 "/usr/include/c++/7/new"
	.file 38 "/usr/include/c++/7/cstdlib"
	.file 39 "/usr/include/c++/7/cstdio"
	.file 40 "/usr/include/c++/7/system_error"
	.file 41 "/usr/include/x86_64-linux-gnu/bits/socket_type.h"
	.file 42 "/usr/include/c++/7/cwctype"
	.file 43 "/usr/include/c++/7/bits/uses_allocator.h"
	.file 44 "/usr/include/c++/7/tuple"
	.file 45 "/usr/include/c++/7/iosfwd"
	.file 46 "/usr/include/c++/7/bits/shared_ptr_base.h"
	.file 47 "/usr/include/c++/7/bits/unique_ptr.h"
	.file 48 "/usr/include/c++/7/csignal"
	.file 49 "/usr/include/c++/7/cstring"
	.file 50 "/usr/include/c++/7/bits/parse_numbers.h"
	.file 51 "/usr/include/c++/7/bits/basic_ios.h"
	.file 52 "/usr/include/c++/7/bits/predefined_ops.h"
	.file 53 "/usr/include/c++/7/ext/new_allocator.h"
	.file 54 "/usr/include/c++/7/ext/numeric_traits.h"
	.file 55 "/usr/include/c++/7/ext/concurrence.h"
	.file 56 "/usr/include/x86_64-linux-gnu/bits/stdint-uintn.h"
	.file 57 "/usr/include/stdint.h"
	.file 58 "/usr/include/x86_64-linux-gnu/bits/types/struct_tm.h"
	.file 59 "/usr/include/time.h"
	.file 60 "<built-in>"
	.file 61 "/usr/include/x86_64-linux-gnu/bits/types/wint_t.h"
	.file 62 "/usr/include/x86_64-linux-gnu/bits/types/__mbstate_t.h"
	.file 63 "/usr/include/x86_64-linux-gnu/bits/types/mbstate_t.h"
	.file 64 "/usr/include/x86_64-linux-gnu/bits/types/__FILE.h"
	.file 65 "/usr/include/x86_64-linux-gnu/bits/libio.h"
	.file 66 "/usr/include/x86_64-linux-gnu/bits/types/FILE.h"
	.file 67 "/usr/include/wchar.h"
	.file 68 "/usr/include/pthread.h"
	.file 69 "/usr/include/x86_64-linux-gnu/c++/7/bits/gthr-default.h"
	.file 70 "/usr/include/x86_64-linux-gnu/c++/7/bits/atomic_word.h"
	.file 71 "/usr/include/locale.h"
	.file 72 "/usr/include/stdlib.h"
	.file 73 "/usr/include/x86_64-linux-gnu/bits/_G_config.h"
	.file 74 "/usr/include/stdio.h"
	.file 75 "/usr/include/x86_64-linux-gnu/bits/sys_errlist.h"
	.file 76 "/usr/include/errno.h"
	.file 77 "/usr/include/x86_64-linux-gnu/bits/wctype-wchar.h"
	.file 78 "/usr/include/wctype.h"
	.file 79 "/usr/include/x86_64-linux-gnu/bits/types/sig_atomic_t.h"
	.file 80 "/usr/include/x86_64-linux-gnu/bits/types/__sigval_t.h"
	.file 81 "/usr/include/x86_64-linux-gnu/bits/types/siginfo_t.h"
	.file 82 "/usr/include/signal.h"
	.file 83 "/usr/include/x86_64-linux-gnu/bits/sigaction.h"
	.file 84 "/usr/include/string.h"
	.section	.data.rel.local.DW.ref.__gxx_personality_v0,"awG",@progbits,DW.ref.__gxx_personality_v0,comdat
	.align 8
	.type	DW.ref.__gxx_personality_v0, @object
	.size	DW.ref.__gxx_personality_v0, 8
DW.ref.__gxx_personality_v0:
	.quad	__gxx_personality_v0
	.hidden	__dso_handle
	.ident	"GCC: (Ubuntu 7.5.0-3ubuntu1~18.04) 7.5.0"
	.section	.note.GNU-stack,"",@progbits
